
boot/lk.out:     file format pei-i386


Disassembly of section .text:

00009a00 <_waitdisk>:
    9a00:	ba f7 01 00 00       	mov    $0x1f7,%edx
    9a05:	ec                   	in     (%dx),%al
    9a06:	83 e0 c0             	and    $0xffffffc0,%eax
    9a09:	3c 40                	cmp    $0x40,%al
    9a0b:	75 f8                	jne    9a05 <_waitdisk+0x5>
    9a0d:	c3                   	ret    
    9a0e:	66 90                	xchg   %ax,%ax

00009a10 <_readsect>:
    9a10:	57                   	push   %edi
    9a11:	b9 f7 01 00 00       	mov    $0x1f7,%ecx
    9a16:	53                   	push   %ebx
    9a17:	8b 5c 24 10          	mov    0x10(%esp),%ebx
    9a1b:	90                   	nop
    9a1c:	8d 74 26 00          	lea    0x0(%esi,%eiz,1),%esi
    9a20:	89 ca                	mov    %ecx,%edx
    9a22:	ec                   	in     (%dx),%al
    9a23:	83 e0 c0             	and    $0xffffffc0,%eax
    9a26:	3c 40                	cmp    $0x40,%al
    9a28:	75 f6                	jne    9a20 <_readsect+0x10>
    9a2a:	b8 01 00 00 00       	mov    $0x1,%eax
    9a2f:	ba f2 01 00 00       	mov    $0x1f2,%edx
    9a34:	ee                   	out    %al,(%dx)
    9a35:	ba f3 01 00 00       	mov    $0x1f3,%edx
    9a3a:	89 d8                	mov    %ebx,%eax
    9a3c:	ee                   	out    %al,(%dx)
    9a3d:	89 d8                	mov    %ebx,%eax
    9a3f:	ba f4 01 00 00       	mov    $0x1f4,%edx
    9a44:	c1 e8 08             	shr    $0x8,%eax
    9a47:	ee                   	out    %al,(%dx)
    9a48:	0f be c3             	movsbl %bl,%eax
    9a4b:	ba f5 01 00 00       	mov    $0x1f5,%edx
    9a50:	c1 f8 10             	sar    $0x10,%eax
    9a53:	ee                   	out    %al,(%dx)
    9a54:	89 d8                	mov    %ebx,%eax
    9a56:	ba f6 01 00 00       	mov    $0x1f6,%edx
    9a5b:	c1 e8 18             	shr    $0x18,%eax
    9a5e:	83 c8 e0             	or     $0xffffffe0,%eax
    9a61:	ee                   	out    %al,(%dx)
    9a62:	b8 20 00 00 00       	mov    $0x20,%eax
    9a67:	89 ca                	mov    %ecx,%edx
    9a69:	ee                   	out    %al,(%dx)
    9a6a:	ba f7 01 00 00       	mov    $0x1f7,%edx
    9a6f:	90                   	nop
    9a70:	ec                   	in     (%dx),%al
    9a71:	83 e0 c0             	and    $0xffffffc0,%eax
    9a74:	3c 40                	cmp    $0x40,%al
    9a76:	75 f8                	jne    9a70 <_readsect+0x60>
    9a78:	8b 7c 24 0c          	mov    0xc(%esp),%edi
    9a7c:	b9 80 00 00 00       	mov    $0x80,%ecx
    9a81:	ba f0 01 00 00       	mov    $0x1f0,%edx
    9a86:	fc                   	cld    
    9a87:	f3 6d                	rep insl (%dx),%es:(%edi)
    9a89:	5b                   	pop    %ebx
    9a8a:	5f                   	pop    %edi
    9a8b:	c3                   	ret    
    9a8c:	8d 74 26 00          	lea    0x0(%esi,%eiz,1),%esi

00009a90 <_readseg>:
    9a90:	57                   	push   %edi
    9a91:	56                   	push   %esi
    9a92:	53                   	push   %ebx
    9a93:	83 ec 08             	sub    $0x8,%esp
    9a96:	8b 74 24 20          	mov    0x20(%esp),%esi
    9a9a:	8b 5c 24 18          	mov    0x18(%esp),%ebx
    9a9e:	8b 7c 24 1c          	mov    0x1c(%esp),%edi
    9aa2:	89 f0                	mov    %esi,%eax
    9aa4:	c1 ee 09             	shr    $0x9,%esi
    9aa7:	25 ff 01 00 00       	and    $0x1ff,%eax
    9aac:	01 df                	add    %ebx,%edi
    9aae:	83 c6 20             	add    $0x20,%esi
    9ab1:	29 c3                	sub    %eax,%ebx
    9ab3:	eb 15                	jmp    9aca <_readseg+0x3a>
    9ab5:	89 74 24 04          	mov    %esi,0x4(%esp)
    9ab9:	83 c6 01             	add    $0x1,%esi
    9abc:	89 1c 24             	mov    %ebx,(%esp)
    9abf:	81 c3 00 02 00 00    	add    $0x200,%ebx
    9ac5:	e8 46 ff ff ff       	call   9a10 <_readsect>
    9aca:	39 fb                	cmp    %edi,%ebx
    9acc:	72 e7                	jb     9ab5 <_readseg+0x25>
    9ace:	83 c4 08             	add    $0x8,%esp
    9ad1:	5b                   	pop    %ebx
    9ad2:	5e                   	pop    %esi
    9ad3:	5f                   	pop    %edi
    9ad4:	c3                   	ret    
    9ad5:	8d 74 26 00          	lea    0x0(%esi,%eiz,1),%esi
    9ad9:	8d bc 27 00 00 00 00 	lea    0x0(%edi,%eiz,1),%edi

00009ae0 <_load_kernel>:
    9ae0:	55                   	push   %ebp
    9ae1:	57                   	push   %edi
    9ae2:	56                   	push   %esi
    9ae3:	53                   	push   %ebx
    9ae4:	bb 20 00 00 00       	mov    $0x20,%ebx
    9ae9:	83 ec 0c             	sub    $0xc,%esp
    9aec:	8d 74 26 00          	lea    0x0(%esi,%eiz,1),%esi
    9af0:	89 d8                	mov    %ebx,%eax
    9af2:	89 5c 24 04          	mov    %ebx,0x4(%esp)
    9af6:	83 c3 01             	add    $0x1,%ebx
    9af9:	c1 e0 09             	shl    $0x9,%eax
    9afc:	05 00 c0 57 00       	add    $0x57c000,%eax
    9b01:	89 04 24             	mov    %eax,(%esp)
    9b04:	e8 07 ff ff ff       	call   9a10 <_readsect>
    9b09:	83 fb 28             	cmp    $0x28,%ebx
    9b0c:	75 e2                	jne    9af0 <_load_kernel+0x10>
    9b0e:	31 c0                	xor    %eax,%eax
    9b10:	81 3d 00 00 58 00 7f 	cmpl   $0x464c457f,0x580000
    9b17:	45 4c 46 
    9b1a:	75 5c                	jne    9b78 <_load_kernel+0x98>
    9b1c:	a1 1c 00 58 00       	mov    0x58001c,%eax
    9b21:	0f b7 35 2c 00 58 00 	movzwl 0x58002c,%esi
    9b28:	31 ed                	xor    %ebp,%ebp
    9b2a:	8d 98 00 00 58 00    	lea    0x580000(%eax),%ebx
    9b30:	c1 e6 05             	shl    $0x5,%esi
    9b33:	01 de                	add    %ebx,%esi
    9b35:	eb 38                	jmp    9b6f <_load_kernel+0x8f>
    9b37:	89 f6                	mov    %esi,%esi
    9b39:	8d bc 27 00 00 00 00 	lea    0x0(%edi,%eiz,1),%edi
    9b40:	8b 43 04             	mov    0x4(%ebx),%eax
    9b43:	8b 7b 0c             	mov    0xc(%ebx),%edi
    9b46:	89 44 24 08          	mov    %eax,0x8(%esp)
    9b4a:	8b 43 10             	mov    0x10(%ebx),%eax
    9b4d:	89 3c 24             	mov    %edi,(%esp)
    9b50:	89 44 24 04          	mov    %eax,0x4(%esp)
    9b54:	e8 37 ff ff ff       	call   9a90 <_readseg>
    9b59:	8b 4b 14             	mov    0x14(%ebx),%ecx
    9b5c:	8b 43 10             	mov    0x10(%ebx),%eax
    9b5f:	39 c1                	cmp    %eax,%ecx
    9b61:	76 09                	jbe    9b6c <_load_kernel+0x8c>
    9b63:	01 c7                	add    %eax,%edi
    9b65:	29 c1                	sub    %eax,%ecx
    9b67:	89 e8                	mov    %ebp,%eax
    9b69:	fc                   	cld    
    9b6a:	f3 aa                	rep stos %al,%es:(%edi)
    9b6c:	83 c3 20             	add    $0x20,%ebx
    9b6f:	39 f3                	cmp    %esi,%ebx
    9b71:	72 cd                	jb     9b40 <_load_kernel+0x60>
    9b73:	a1 18 00 58 00       	mov    0x580018,%eax
    9b78:	83 c4 0c             	add    $0xc,%esp
    9b7b:	5b                   	pop    %ebx
    9b7c:	5e                   	pop    %esi
    9b7d:	5f                   	pop    %edi
    9b7e:	5d                   	pop    %ebp
    9b7f:	c3                   	ret    

00009b80 <__CTOR_LIST__>:
    9b80:	ff                   	(bad)  
    9b81:	ff                   	(bad)  
    9b82:	ff                   	(bad)  
    9b83:	ff 00                	incl   (%eax)
    9b85:	00 00                	add    %al,(%eax)
	...

00009b88 <__DTOR_LIST__>:
    9b88:	ff                   	(bad)  
    9b89:	ff                   	(bad)  
    9b8a:	ff                   	(bad)  
    9b8b:	ff 00                	incl   (%eax)
    9b8d:	00 00                	add    %al,(%eax)
	...

Disassembly of section .rdata:

0000a000 <.rdata$zzz>:
    a000:	47                   	inc    %edi
    a001:	43                   	inc    %ebx
    a002:	43                   	inc    %ebx
    a003:	3a 20                	cmp    (%eax),%ah
    a005:	28 69 36             	sub    %ch,0x36(%ecx)
    a008:	38 36                	cmp    %dh,(%esi)
    a00a:	2d 77 69 6e 33       	sub    $0x336e6977,%eax
    a00f:	32 2d 64 77 61 72    	xor    0x72617764,%ch
    a015:	66 2d 72 65          	sub    $0x6572,%ax
    a019:	76 30                	jbe    a04b <__RUNTIME_PSEUDO_RELOC_LIST_END__+0xb>
    a01b:	2c 20                	sub    $0x20,%al
    a01d:	42                   	inc    %edx
    a01e:	75 69                	jne    a089 <__RUNTIME_PSEUDO_RELOC_LIST_END__+0x49>
    a020:	6c                   	insb   (%dx),%es:(%edi)
    a021:	74 20                	je     a043 <__RUNTIME_PSEUDO_RELOC_LIST_END__+0x3>
    a023:	62 79 20             	bound  %edi,0x20(%ecx)
    a026:	4d                   	dec    %ebp
    a027:	69 6e 47 57 2d 57 36 	imul   $0x36572d57,0x47(%esi),%ebp
    a02e:	34 20                	xor    $0x20,%al
    a030:	70 72                	jo     a0a4 <__RUNTIME_PSEUDO_RELOC_LIST_END__+0x64>
    a032:	6f                   	outsl  %ds:(%esi),(%dx)
    a033:	6a 65                	push   $0x65
    a035:	63 74 29 20          	arpl   %si,0x20(%ecx,%ebp,1)
    a039:	38 2e                	cmp    %ch,(%esi)
    a03b:	31 2e                	xor    %ebp,(%esi)
    a03d:	30 00                	xor    %al,(%eax)
	...

Disassembly of section .eh_fram:

0000b000 <.eh_frame>:
    b000:	14 00                	adc    $0x0,%al
    b002:	00 00                	add    %al,(%eax)
    b004:	00 00                	add    %al,(%eax)
    b006:	00 00                	add    %al,(%eax)
    b008:	01 7a 52             	add    %edi,0x52(%edx)
    b00b:	00 01                	add    %al,(%ecx)
    b00d:	7c 08                	jl     b017 <.eh_frame+0x17>
    b00f:	01 1b                	add    %ebx,(%ebx)
    b011:	0c 04                	or     $0x4,%al
    b013:	04 88                	add    $0x88,%al
    b015:	01 00                	add    %eax,(%eax)
    b017:	00 10                	add    %dl,(%eax)
    b019:	00 00                	add    %al,(%eax)
    b01b:	00 1c 00             	add    %bl,(%eax,%eax,1)
    b01e:	00 00                	add    %al,(%eax)
    b020:	e0 e9                	loopne b00b <.eh_frame+0xb>
    b022:	ff                   	(bad)  
    b023:	ff 0e                	decl   (%esi)
    b025:	00 00                	add    %al,(%eax)
    b027:	00 00                	add    %al,(%eax)
    b029:	00 00                	add    %al,(%eax)
    b02b:	00 20                	add    %ah,(%eax)
    b02d:	00 00                	add    %al,(%eax)
    b02f:	00 30                	add    %dh,(%eax)
    b031:	00 00                	add    %al,(%eax)
    b033:	00 dc                	add    %bl,%ah
    b035:	e9 ff ff 7c 00       	jmp    7db039 <___ImageBase+0x3db039>
    b03a:	00 00                	add    %al,(%eax)
    b03c:	00 41 0e             	add    %al,0xe(%ecx)
    b03f:	08 87 02 46 0e 0c    	or     %al,0xc0e4602(%edi)
    b045:	83 03 02             	addl   $0x2,(%ebx)
    b048:	73 c3                	jae    b00d <.eh_frame+0xd>
    b04a:	0e                   	push   %cs
    b04b:	08 41 c7             	or     %al,-0x39(%ecx)
    b04e:	0e                   	push   %cs
    b04f:	04 30                	add    $0x30,%al
    b051:	00 00                	add    %al,(%eax)
    b053:	00 54 00 00          	add    %dl,0x0(%eax,%eax,1)
    b057:	00 38                	add    %bh,(%eax)
    b059:	ea ff ff 45 00 00 00 	ljmp   $0x0,$0x45ffff
    b060:	00 41 0e             	add    %al,0xe(%ecx)
    b063:	08 87 02 41 0e 0c    	or     %al,0xc0e4102(%edi)
    b069:	86 03                	xchg   %al,(%ebx)
    b06b:	41                   	inc    %ecx
    b06c:	0e                   	push   %cs
    b06d:	10 83 04 43 0e 18    	adc    %al,0x180e4304(%ebx)
    b073:	7b 0e                	jnp    b083 <.eh_frame+0x83>
    b075:	10 41 c3             	adc    %al,-0x3d(%ecx)
    b078:	0e                   	push   %cs
    b079:	0c 41                	or     $0x41,%al
    b07b:	c6                   	(bad)  
    b07c:	0e                   	push   %cs
    b07d:	08 41 c7             	or     %al,-0x39(%ecx)
    b080:	0e                   	push   %cs
    b081:	04 00                	add    $0x0,%al
    b083:	00 38                	add    %bh,(%eax)
    b085:	00 00                	add    %al,(%eax)
    b087:	00 88 00 00 00 54    	add    %cl,0x54000000(%eax)
    b08d:	ea ff ff a0 00 00 00 	ljmp   $0x0,$0xa0ffff
    b094:	00 41 0e             	add    %al,0xe(%ecx)
    b097:	08 85 02 41 0e 0c    	or     %al,0xc0e4102(%ebp)
    b09d:	87 03                	xchg   %eax,(%ebx)
    b09f:	41                   	inc    %ecx
    b0a0:	0e                   	push   %cs
    b0a1:	10 86 04 41 0e 14    	adc    %al,0x140e4104(%esi)
    b0a7:	83 05 48 0e 20 02 8f 	addl   $0xffffff8f,0x2200e48
    b0ae:	0e                   	push   %cs
    b0af:	14 41                	adc    $0x41,%al
    b0b1:	c3                   	ret    
    b0b2:	0e                   	push   %cs
    b0b3:	10 41 c6             	adc    %al,-0x3a(%ecx)
    b0b6:	0e                   	push   %cs
    b0b7:	0c 41                	or     $0x41,%al
    b0b9:	c7                   	(bad)  
    b0ba:	0e                   	push   %cs
    b0bb:	08 41 c5             	or     %al,-0x3b(%ecx)
    b0be:	0e                   	push   %cs
    b0bf:	04                   	.byte 0x4

Disassembly of section .idata:

0000c000 <__bss_end__>:
	...

Disassembly of section .stab:

0000d000 <.stab>:
    d000:	01 00                	add    %eax,(%eax)
    d002:	00 00                	add    %al,(%eax)
    d004:	00 00                	add    %al,(%eax)
    d006:	d4 00                	aam    $0x0
    d008:	73 0e                	jae    d018 <.stab+0x18>
    d00a:	00 00                	add    %al,(%eax)
    d00c:	06                   	push   %es
    d00d:	00 00                	add    %al,(%eax)
    d00f:	00 64 00 02          	add    %ah,0x2(%eax,%eax,1)
    d013:	00 00                	add    %al,(%eax)
    d015:	9a 00 00 10 00 00 00 	lcall  $0x0,$0x100000
    d01c:	3c 00                	cmp    $0x0,%al
    d01e:	00 00                	add    %al,(%eax)
    d020:	00 00                	add    %al,(%eax)
    d022:	00 00                	add    %al,(%eax)
    d024:	1f                   	pop    %ds
    d025:	00 00                	add    %al,(%eax)
    d027:	00 80 00 00 00 00    	add    %al,0x0(%eax)
    d02d:	00 00                	add    %al,(%eax)
    d02f:	00 49 00             	add    %cl,0x0(%ecx)
    d032:	00 00                	add    %al,(%eax)
    d034:	80 00 00             	addb   $0x0,(%eax)
    d037:	00 00                	add    %al,(%eax)
    d039:	00 00                	add    %al,(%eax)
    d03b:	00 63 00             	add    %ah,0x0(%ebx)
    d03e:	00 00                	add    %al,(%eax)
    d040:	80 00 00             	addb   $0x0,(%eax)
    d043:	00 00                	add    %al,(%eax)
    d045:	00 00                	add    %al,(%eax)
    d047:	00 92 00 00 00 80    	add    %dl,-0x80000000(%edx)
    d04d:	00 00                	add    %al,(%eax)
    d04f:	00 00                	add    %al,(%eax)
    d051:	00 00                	add    %al,(%eax)
    d053:	00 bb 00 00 00 80    	add    %bh,-0x80000000(%ebx)
    d059:	00 00                	add    %al,(%eax)
    d05b:	00 00                	add    %al,(%eax)
    d05d:	00 00                	add    %al,(%eax)
    d05f:	00 e9                	add    %ch,%cl
    d061:	00 00                	add    %al,(%eax)
    d063:	00 80 00 00 00 00    	add    %al,0x0(%eax)
    d069:	00 00                	add    %al,(%eax)
    d06b:	00 06                	add    %al,(%esi)
    d06d:	01 00                	add    %eax,(%eax)
    d06f:	00 80 00 00 00 00    	add    %al,0x0(%eax)
    d075:	00 00                	add    %al,(%eax)
    d077:	00 2c 01             	add    %ch,(%ecx,%eax,1)
    d07a:	00 00                	add    %al,(%eax)
    d07c:	80 00 00             	addb   $0x0,(%eax)
    d07f:	00 00                	add    %al,(%eax)
    d081:	00 00                	add    %al,(%eax)
    d083:	00 72 01             	add    %dh,0x1(%edx)
    d086:	00 00                	add    %al,(%eax)
    d088:	80 00 00             	addb   $0x0,(%eax)
    d08b:	00 00                	add    %al,(%eax)
    d08d:	00 00                	add    %al,(%eax)
    d08f:	00 9d 01 00 00 80    	add    %bl,-0x7fffffff(%ebp)
    d095:	00 00                	add    %al,(%eax)
    d097:	00 00                	add    %al,(%eax)
    d099:	00 00                	add    %al,(%eax)
    d09b:	00 c5                	add    %al,%ch
    d09d:	01 00                	add    %eax,(%eax)
    d09f:	00 80 00 00 00 00    	add    %al,0x0(%eax)
    d0a5:	00 00                	add    %al,(%eax)
    d0a7:	00 f1                	add    %dh,%cl
    d0a9:	01 00                	add    %eax,(%eax)
    d0ab:	00 80 00 00 00 00    	add    %al,0x0(%eax)
    d0b1:	00 00                	add    %al,(%eax)
    d0b3:	00 17                	add    %dl,(%edi)
    d0b5:	02 00                	add    (%eax),%al
    d0b7:	00 80 00 00 00 00    	add    %al,0x0(%eax)
    d0bd:	00 00                	add    %al,(%eax)
    d0bf:	00 3c 02             	add    %bh,(%edx,%eax,1)
    d0c2:	00 00                	add    %al,(%eax)
    d0c4:	80 00 00             	addb   $0x0,(%eax)
    d0c7:	00 00                	add    %al,(%eax)
    d0c9:	00 00                	add    %al,(%eax)
    d0cb:	00 56 02             	add    %dl,0x2(%esi)
    d0ce:	00 00                	add    %al,(%eax)
    d0d0:	80 00 00             	addb   $0x0,(%eax)
    d0d3:	00 00                	add    %al,(%eax)
    d0d5:	00 00                	add    %al,(%eax)
    d0d7:	00 71 02             	add    %dh,0x2(%ecx)
    d0da:	00 00                	add    %al,(%eax)
    d0dc:	80 00 00             	addb   $0x0,(%eax)
    d0df:	00 00                	add    %al,(%eax)
    d0e1:	00 00                	add    %al,(%eax)
    d0e3:	00 92 02 00 00 80    	add    %dl,-0x7ffffffe(%edx)
    d0e9:	00 00                	add    %al,(%eax)
    d0eb:	00 00                	add    %al,(%eax)
    d0ed:	00 00                	add    %al,(%eax)
    d0ef:	00 af 02 00 00 80    	add    %ch,-0x7ffffffe(%edi)
    d0f5:	00 00                	add    %al,(%eax)
    d0f7:	00 00                	add    %al,(%eax)
    d0f9:	00 00                	add    %al,(%eax)
    d0fb:	00 cc                	add    %cl,%ah
    d0fd:	02 00                	add    (%eax),%al
    d0ff:	00 80 00 00 00 00    	add    %al,0x0(%eax)
    d105:	00 00                	add    %al,(%eax)
    d107:	00 eb                	add    %ch,%bl
    d109:	02 00                	add    (%eax),%al
    d10b:	00 80 00 00 00 00    	add    %al,0x0(%eax)
    d111:	00 00                	add    %al,(%eax)
    d113:	00 09                	add    %cl,(%ecx)
    d115:	03 00                	add    (%eax),%eax
    d117:	00 80 00 00 00 00    	add    %al,0x0(%eax)
    d11d:	00 00                	add    %al,(%eax)
    d11f:	00 28                	add    %ch,(%eax)
    d121:	03 00                	add    (%eax),%eax
    d123:	00 80 00 00 00 00    	add    %al,0x0(%eax)
    d129:	00 00                	add    %al,(%eax)
    d12b:	00 47 03             	add    %al,0x3(%edi)
    d12e:	00 00                	add    %al,(%eax)
    d130:	80 00 00             	addb   $0x0,(%eax)
    d133:	00 00                	add    %al,(%eax)
    d135:	00 00                	add    %al,(%eax)
    d137:	00 66 03             	add    %ah,0x3(%esi)
    d13a:	00 00                	add    %al,(%eax)
    d13c:	80 00 00             	addb   $0x0,(%eax)
    d13f:	00 00                	add    %al,(%eax)
    d141:	00 00                	add    %al,(%eax)
    d143:	00 87 03 00 00 80    	add    %al,-0x7ffffffd(%edi)
    d149:	00 00                	add    %al,(%eax)
    d14b:	00 00                	add    %al,(%eax)
    d14d:	00 00                	add    %al,(%eax)
    d14f:	00 9b 03 00 00 82    	add    %bl,-0x7dfffffd(%ebx)
    d155:	00 00                	add    %al,(%eax)
    d157:	00 f7                	add    %dh,%bh
    d159:	f9                   	stc    
    d15a:	01 00                	add    %eax,(%eax)
    d15c:	d7                   	xlat   %ds:(%ebx)
    d15d:	03 00                	add    (%eax),%eax
    d15f:	00 80 00 00 00 00    	add    %al,0x0(%eax)
    d165:	00 00                	add    %al,(%eax)
    d167:	00 ec                	add    %ch,%ah
    d169:	03 00                	add    (%eax),%eax
    d16b:	00 80 00 00 00 00    	add    %al,0x0(%eax)
    d171:	00 00                	add    %al,(%eax)
    d173:	00 01                	add    %al,(%ecx)
    d175:	04 00                	add    $0x0,%al
    d177:	00 80 00 00 00 00    	add    %al,0x0(%eax)
    d17d:	00 00                	add    %al,(%eax)
    d17f:	00 18                	add    %bl,(%eax)
    d181:	04 00                	add    $0x0,%al
    d183:	00 80 00 00 00 00    	add    %al,0x0(%eax)
    d189:	00 00                	add    %al,(%eax)
    d18b:	00 2e                	add    %ch,(%esi)
    d18d:	04 00                	add    $0x0,%al
    d18f:	00 80 00 00 00 00    	add    %al,0x0(%eax)
    d195:	00 00                	add    %al,(%eax)
    d197:	00 44 04 00          	add    %al,0x0(%esp,%eax,1)
    d19b:	00 80 00 00 00 00    	add    %al,0x0(%eax)
    d1a1:	00 00                	add    %al,(%eax)
    d1a3:	00 5c 04 00          	add    %bl,0x0(%esp,%eax,1)
    d1a7:	00 80 00 00 00 00    	add    %al,0x0(%eax)
    d1ad:	00 00                	add    %al,(%eax)
    d1af:	00 74 04 00          	add    %dh,0x0(%esp,%eax,1)
    d1b3:	00 80 00 00 00 00    	add    %al,0x0(%eax)
    d1b9:	00 00                	add    %al,(%eax)
    d1bb:	00 8c 04 00 00 80 00 	add    %cl,0x800000(%esp,%eax,1)
    d1c2:	00 00                	add    %al,(%eax)
    d1c4:	00 00                	add    %al,(%eax)
    d1c6:	00 00                	add    %al,(%eax)
    d1c8:	a5                   	movsl  %ds:(%esi),%es:(%edi)
    d1c9:	04 00                	add    $0x0,%al
    d1cb:	00 80 00 00 00 00    	add    %al,0x0(%eax)
    d1d1:	00 00                	add    %al,(%eax)
    d1d3:	00 be 04 00 00 80    	add    %bh,-0x7ffffffc(%esi)
    d1d9:	00 00                	add    %al,(%eax)
    d1db:	00 00                	add    %al,(%eax)
    d1dd:	00 00                	add    %al,(%eax)
    d1df:	00 d8                	add    %bl,%al
    d1e1:	04 00                	add    $0x0,%al
    d1e3:	00 80 00 00 00 00    	add    %al,0x0(%eax)
    d1e9:	00 00                	add    %al,(%eax)
    d1eb:	00 f2                	add    %dh,%dl
    d1ed:	04 00                	add    $0x0,%al
    d1ef:	00 80 00 00 00 00    	add    %al,0x0(%eax)
    d1f5:	00 00                	add    %al,(%eax)
    d1f7:	00 0d 05 00 00 80    	add    %cl,0x80000005
    d1fd:	00 00                	add    %al,(%eax)
    d1ff:	00 00                	add    %al,(%eax)
    d201:	00 00                	add    %al,(%eax)
    d203:	00 27                	add    %ah,(%edi)
    d205:	05 00 00 80 00       	add    $0x800000,%eax
    d20a:	00 00                	add    %al,(%eax)
    d20c:	00 00                	add    %al,(%eax)
    d20e:	00 00                	add    %al,(%eax)
    d210:	42                   	inc    %edx
    d211:	05 00 00 80 00       	add    $0x800000,%eax
    d216:	00 00                	add    %al,(%eax)
    d218:	00 00                	add    %al,(%eax)
    d21a:	00 00                	add    %al,(%eax)
    d21c:	5b                   	pop    %ebx
    d21d:	05 00 00 80 00       	add    $0x800000,%eax
    d222:	00 00                	add    %al,(%eax)
    d224:	00 00                	add    %al,(%eax)
    d226:	00 00                	add    %al,(%eax)
    d228:	74 05                	je     d22f <.stab+0x22f>
    d22a:	00 00                	add    %al,(%eax)
    d22c:	80 00 00             	addb   $0x0,(%eax)
    d22f:	00 00                	add    %al,(%eax)
    d231:	00 00                	add    %al,(%eax)
    d233:	00 8c 05 00 00 80 00 	add    %cl,0x800000(%ebp,%eax,1)
    d23a:	00 00                	add    %al,(%eax)
    d23c:	00 00                	add    %al,(%eax)
    d23e:	00 00                	add    %al,(%eax)
    d240:	a4                   	movsb  %ds:(%esi),%es:(%edi)
    d241:	05 00 00 80 00       	add    $0x800000,%eax
    d246:	00 00                	add    %al,(%eax)
    d248:	00 00                	add    %al,(%eax)
    d24a:	00 00                	add    %al,(%eax)
    d24c:	c0 05 00 00 80 00 00 	rolb   $0x0,0x800000
    d253:	00 00                	add    %al,(%eax)
    d255:	00 00                	add    %al,(%eax)
    d257:	00 dc                	add    %bl,%ah
    d259:	05 00 00 80 00       	add    $0x800000,%eax
    d25e:	00 00                	add    %al,(%eax)
    d260:	00 00                	add    %al,(%eax)
    d262:	00 00                	add    %al,(%eax)
    d264:	f7 05 00 00 80 00 00 	testl  $0x0,0x800000
    d26b:	00 00 00 
    d26e:	00 00                	add    %al,(%eax)
    d270:	12 06                	adc    (%esi),%al
    d272:	00 00                	add    %al,(%eax)
    d274:	80 00 00             	addb   $0x0,(%eax)
    d277:	00 00                	add    %al,(%eax)
    d279:	00 00                	add    %al,(%eax)
    d27b:	00 a7 07 00 00 80    	add    %ah,-0x7ffffff9(%edi)
    d281:	00 00                	add    %al,(%eax)
    d283:	00 00                	add    %al,(%eax)
    d285:	00 00                	add    %al,(%eax)
    d287:	00 6d 08             	add    %ch,0x8(%ebp)
    d28a:	00 00                	add    %al,(%eax)
    d28c:	80 00 00             	addb   $0x0,(%eax)
    d28f:	00 00                	add    %al,(%eax)
    d291:	00 00                	add    %al,(%eax)
    d293:	00 66 09             	add    %ah,0x9(%esi)
    d296:	00 00                	add    %al,(%eax)
    d298:	80 00 00             	addb   $0x0,(%eax)
    d29b:	00 00                	add    %al,(%eax)
    d29d:	00 00                	add    %al,(%eax)
    d29f:	00 bd 0a 00 00 80    	add    %bh,-0x7ffffff6(%ebp)
    d2a5:	00 00                	add    %al,(%eax)
    d2a7:	00 00                	add    %al,(%eax)
    d2a9:	00 00                	add    %al,(%eax)
    d2ab:	00 58 0b             	add    %bl,0xb(%eax)
    d2ae:	00 00                	add    %al,(%eax)
    d2b0:	80 00 00             	addb   $0x0,(%eax)
	...
    d2bb:	00 a2 00 00 00 00    	add    %ah,0x0(%edx)
    d2c1:	00 00                	add    %al,(%eax)
    d2c3:	00 9d 0b 00 00 82    	add    %bl,-0x7dfffff5(%ebp)
    d2c9:	00 00                	add    %al,(%eax)
    d2cb:	00 2d 10 00 00 d8    	add    %ch,0xd8000010
    d2d1:	0b 00                	or     (%eax),%eax
    d2d3:	00 82 00 00 00 70    	add    %al,0x70000000(%edx)
    d2d9:	04 00                	add    $0x0,%al
    d2db:	00 14 0c             	add    %dl,(%esp,%ecx,1)
    d2de:	00 00                	add    %al,(%eax)
    d2e0:	82 00 00             	addb   $0x0,(%eax)
    d2e3:	00 d2                	add    %dl,%dl
    d2e5:	3a 00                	cmp    (%eax),%al
    d2e7:	00 4f 0c             	add    %cl,0xc(%edi)
    d2ea:	00 00                	add    %al,(%eax)
    d2ec:	80 00 00             	addb   $0x0,(%eax)
    d2ef:	00 00                	add    %al,(%eax)
    d2f1:	00 00                	add    %al,(%eax)
    d2f3:	00 63 0c             	add    %ah,0xc(%ebx)
    d2f6:	00 00                	add    %al,(%eax)
    d2f8:	80 00 00             	addb   $0x0,(%eax)
    d2fb:	00 00                	add    %al,(%eax)
    d2fd:	00 00                	add    %al,(%eax)
    d2ff:	00 76 0c             	add    %dh,0xc(%esi)
    d302:	00 00                	add    %al,(%eax)
    d304:	80 00 00             	addb   $0x0,(%eax)
    d307:	00 00                	add    %al,(%eax)
    d309:	00 00                	add    %al,(%eax)
    d30b:	00 8a 0c 00 00 80    	add    %cl,-0x7ffffff4(%edx)
    d311:	00 00                	add    %al,(%eax)
    d313:	00 00                	add    %al,(%eax)
    d315:	00 00                	add    %al,(%eax)
    d317:	00 9f 0c 00 00 80    	add    %bl,-0x7ffffff4(%edi)
    d31d:	00 00                	add    %al,(%eax)
    d31f:	00 00                	add    %al,(%eax)
    d321:	00 00                	add    %al,(%eax)
    d323:	00 b3 0c 00 00 80    	add    %dh,-0x7ffffff4(%ebx)
    d329:	00 00                	add    %al,(%eax)
    d32b:	00 00                	add    %al,(%eax)
    d32d:	00 00                	add    %al,(%eax)
    d32f:	00 c7                	add    %al,%bh
    d331:	0c 00                	or     $0x0,%al
    d333:	00 80 00 00 00 00    	add    %al,0x0(%eax)
    d339:	00 00                	add    %al,(%eax)
    d33b:	00 d9                	add    %bl,%cl
    d33d:	0c 00                	or     $0x0,%al
    d33f:	00 80 00 00 00 00    	add    %al,0x0(%eax)
    d345:	00 00                	add    %al,(%eax)
    d347:	00 ee                	add    %ch,%dh
    d349:	0c 00                	or     $0x0,%al
    d34b:	00 80 00 00 00 00    	add    %al,0x0(%eax)
    d351:	00 00                	add    %al,(%eax)
    d353:	00 01                	add    %al,(%ecx)
    d355:	0d 00 00 80 00       	or     $0x800000,%eax
    d35a:	00 00                	add    %al,(%eax)
    d35c:	00 00                	add    %al,(%eax)
    d35e:	00 00                	add    %al,(%eax)
    d360:	16                   	push   %ss
    d361:	0d 00 00 80 00       	or     $0x800000,%eax
    d366:	00 00                	add    %al,(%eax)
    d368:	00 00                	add    %al,(%eax)
    d36a:	00 00                	add    %al,(%eax)
    d36c:	2a 0d 00 00 80 00    	sub    0x800000,%cl
    d372:	00 00                	add    %al,(%eax)
    d374:	00 00                	add    %al,(%eax)
    d376:	00 00                	add    %al,(%eax)
    d378:	40                   	inc    %eax
    d379:	0d 00 00 80 00       	or     $0x800000,%eax
	...
    d386:	00 00                	add    %al,(%eax)
    d388:	a2 00 00 00 00       	mov    %al,0x0
    d38d:	00 00                	add    %al,(%eax)
    d38f:	00 55 0d             	add    %dl,0xd(%ebp)
    d392:	00 00                	add    %al,(%eax)
    d394:	80 00 00             	addb   $0x0,(%eax)
	...
    d39f:	00 a2 00 00 00 00    	add    %ah,0x0(%edx)
    d3a5:	00 00                	add    %al,(%eax)
    d3a7:	00 68 0d             	add    %ch,0xd(%eax)
    d3aa:	00 00                	add    %al,(%eax)
    d3ac:	80 00 00             	addb   $0x0,(%eax)
	...
    d3b7:	00 a2 00 00 00 00    	add    %ah,0x0(%edx)
    d3bd:	00 00                	add    %al,(%eax)
    d3bf:	00 a9 0d 00 00 24    	add    %ch,0x2400000d(%ecx)
    d3c5:	00 00                	add    %al,(%eax)
    d3c7:	00 00                	add    %al,(%eax)
    d3c9:	9a 00 00 00 00 00 00 	lcall  $0x0,$0x0
    d3d0:	44                   	inc    %esp
    d3d1:	00 26                	add    %ah,(%esi)
    d3d3:	00 00                	add    %al,(%eax)
    d3d5:	00 00                	add    %al,(%eax)
    d3d7:	00 9d 0b 00 00 84    	add    %bl,-0x7bfffff5(%ebp)
    d3dd:	00 00                	add    %al,(%eax)
    d3df:	00 00                	add    %al,(%eax)
    d3e1:	9a 00 00 00 00 00 00 	lcall  $0x0,$0x0
    d3e8:	44                   	inc    %esp
    d3e9:	00 18                	add    %bl,(%eax)
	...
    d3f3:	00 44 00 18          	add    %al,0x18(%eax,%eax,1)
    d3f7:	00 05 00 00 00 06    	add    %al,0x6000000
    d3fd:	00 00                	add    %al,(%eax)
    d3ff:	00 84 00 00 00 06 9a 	add    %al,-0x65fa0000(%eax,%eax,1)
    d406:	00 00                	add    %al,(%eax)
    d408:	00 00                	add    %al,(%eax)
    d40a:	00 00                	add    %al,(%eax)
    d40c:	44                   	inc    %esp
    d40d:	00 27                	add    %ah,(%edi)
    d40f:	00 06                	add    %al,(%esi)
    d411:	00 00                	add    %al,(%eax)
    d413:	00 00                	add    %al,(%eax)
    d415:	00 00                	add    %al,(%eax)
    d417:	00 44 00 29          	add    %al,0x29(%eax,%eax,1)
    d41b:	00 0d 00 00 00 ba    	add    %cl,0xba000000
    d421:	0d 00 00 24 00       	or     $0x240000,%eax
    d426:	00 00                	add    %al,(%eax)
    d428:	10 9a 00 00 cb 0d    	adc    %bl,0xdcb0000(%edx)
    d42e:	00 00                	add    %al,(%eax)
    d430:	a0 00 00 00 04       	mov    0x4000000,%al
    d435:	00 00                	add    %al,(%eax)
    d437:	00 d6                	add    %dl,%dh
    d439:	0d 00 00 a0 00       	or     $0xa00000,%eax
    d43e:	00 00                	add    %al,(%eax)
    d440:	08 00                	or     %al,(%eax)
    d442:	00 00                	add    %al,(%eax)
    d444:	00 00                	add    %al,(%eax)
    d446:	00 00                	add    %al,(%eax)
    d448:	44                   	inc    %esp
    d449:	00 2e                	add    %ch,(%esi)
    d44b:	00 00                	add    %al,(%eax)
    d44d:	00 00                	add    %al,(%eax)
    d44f:	00 9d 0b 00 00 84    	add    %bl,-0x7bfffff5(%ebp)
    d455:	00 00                	add    %al,(%eax)
    d457:	00 11                	add    %dl,(%ecx)
    d459:	9a 00 00 00 00 00 00 	lcall  $0x0,$0x0
    d460:	44                   	inc    %esp
    d461:	00 18                	add    %bl,(%eax)
    d463:	00 01                	add    %al,(%ecx)
    d465:	00 00                	add    %al,(%eax)
    d467:	00 06                	add    %al,(%esi)
    d469:	00 00                	add    %al,(%eax)
    d46b:	00 84 00 00 00 16 9a 	add    %al,-0x65ea0000(%eax,%eax,1)
    d472:	00 00                	add    %al,(%eax)
    d474:	00 00                	add    %al,(%eax)
    d476:	00 00                	add    %al,(%eax)
    d478:	44                   	inc    %esp
    d479:	00 2e                	add    %ch,(%esi)
    d47b:	00 06                	add    %al,(%esi)
    d47d:	00 00                	add    %al,(%eax)
    d47f:	00 00                	add    %al,(%eax)
    d481:	00 00                	add    %al,(%eax)
    d483:	00 44 00 2e          	add    %al,0x2e(%eax,%eax,1)
    d487:	00 07                	add    %al,(%edi)
    d489:	00 00                	add    %al,(%eax)
    d48b:	00 9d 0b 00 00 84    	add    %bl,-0x7bfffff5(%ebp)
    d491:	00 00                	add    %al,(%eax)
    d493:	00 20                	add    %ah,(%eax)
    d495:	9a 00 00 00 00 00 00 	lcall  $0x0,$0x0
    d49c:	44                   	inc    %esp
    d49d:	00 18                	add    %bl,(%eax)
    d49f:	00 10                	add    %dl,(%eax)
    d4a1:	00 00                	add    %al,(%eax)
    d4a3:	00 06                	add    %al,(%esi)
    d4a5:	00 00                	add    %al,(%eax)
    d4a7:	00 84 00 00 00 23 9a 	add    %al,-0x65dd0000(%eax,%eax,1)
    d4ae:	00 00                	add    %al,(%eax)
    d4b0:	00 00                	add    %al,(%eax)
    d4b2:	00 00                	add    %al,(%eax)
    d4b4:	44                   	inc    %esp
    d4b5:	00 27                	add    %ah,(%edi)
    d4b7:	00 13                	add    %dl,(%ebx)
    d4b9:	00 00                	add    %al,(%eax)
    d4bb:	00 9d 0b 00 00 84    	add    %bl,-0x7bfffff5(%ebp)
    d4c1:	00 00                	add    %al,(%eax)
    d4c3:	00 2a                	add    %ch,(%edx)
    d4c5:	9a 00 00 00 00 00 00 	lcall  $0x0,$0x0
    d4cc:	44                   	inc    %esp
    d4cd:	00 36                	add    %dh,(%esi)
    d4cf:	00 1a                	add    %bl,(%edx)
    d4d1:	00 00                	add    %al,(%eax)
    d4d3:	00 06                	add    %al,(%esi)
    d4d5:	00 00                	add    %al,(%eax)
    d4d7:	00 84 00 00 00 3d 9a 	add    %al,-0x65c30000(%eax,%eax,1)
    d4de:	00 00                	add    %al,(%eax)
    d4e0:	00 00                	add    %al,(%eax)
    d4e2:	00 00                	add    %al,(%eax)
    d4e4:	44                   	inc    %esp
    d4e5:	00 32                	add    %dh,(%edx)
    d4e7:	00 2d 00 00 00 9d    	add    %ch,0x9d000000
    d4ed:	0b 00                	or     (%eax),%eax
    d4ef:	00 84 00 00 00 3f 9a 	add    %al,-0x65c10000(%eax,%eax,1)
    d4f6:	00 00                	add    %al,(%eax)
    d4f8:	00 00                	add    %al,(%eax)
    d4fa:	00 00                	add    %al,(%eax)
    d4fc:	44                   	inc    %esp
    d4fd:	00 36                	add    %dh,(%esi)
    d4ff:	00 2f                	add    %ch,(%edi)
    d501:	00 00                	add    %al,(%eax)
    d503:	00 06                	add    %al,(%esi)
    d505:	00 00                	add    %al,(%eax)
    d507:	00 84 00 00 00 44 9a 	add    %al,-0x65bc0000(%eax,%eax,1)
    d50e:	00 00                	add    %al,(%eax)
    d510:	00 00                	add    %al,(%eax)
    d512:	00 00                	add    %al,(%eax)
    d514:	44                   	inc    %esp
    d515:	00 32                	add    %dh,(%edx)
    d517:	00 34 00             	add    %dh,(%eax,%eax,1)
    d51a:	00 00                	add    %al,(%eax)
    d51c:	9d                   	popf   
    d51d:	0b 00                	or     (%eax),%eax
    d51f:	00 84 00 00 00 47 9a 	add    %al,-0x65b90000(%eax,%eax,1)
    d526:	00 00                	add    %al,(%eax)
    d528:	00 00                	add    %al,(%eax)
    d52a:	00 00                	add    %al,(%eax)
    d52c:	44                   	inc    %esp
    d52d:	00 36                	add    %dh,(%esi)
    d52f:	00 37                	add    %dh,(%edi)
    d531:	00 00                	add    %al,(%eax)
    d533:	00 06                	add    %al,(%esi)
    d535:	00 00                	add    %al,(%eax)
    d537:	00 84 00 00 00 48 9a 	add    %al,-0x65b80000(%eax,%eax,1)
    d53e:	00 00                	add    %al,(%eax)
    d540:	00 00                	add    %al,(%eax)
    d542:	00 00                	add    %al,(%eax)
    d544:	44                   	inc    %esp
    d545:	00 33                	add    %dh,(%ebx)
    d547:	00 38                	add    %bh,(%eax)
    d549:	00 00                	add    %al,(%eax)
    d54b:	00 9d 0b 00 00 84    	add    %bl,-0x7bfffff5(%ebp)
    d551:	00 00                	add    %al,(%eax)
    d553:	00 4b 9a             	add    %cl,-0x66(%ebx)
    d556:	00 00                	add    %al,(%eax)
    d558:	00 00                	add    %al,(%eax)
    d55a:	00 00                	add    %al,(%eax)
    d55c:	44                   	inc    %esp
    d55d:	00 36                	add    %dh,(%esi)
    d55f:	00 3b                	add    %bh,(%ebx)
    d561:	00 00                	add    %al,(%eax)
    d563:	00 06                	add    %al,(%esi)
    d565:	00 00                	add    %al,(%eax)
    d567:	00 84 00 00 00 50 9a 	add    %al,-0x65b00000(%eax,%eax,1)
    d56e:	00 00                	add    %al,(%eax)
    d570:	00 00                	add    %al,(%eax)
    d572:	00 00                	add    %al,(%eax)
    d574:	44                   	inc    %esp
    d575:	00 33                	add    %dh,(%ebx)
    d577:	00 40 00             	add    %al,0x0(%eax)
    d57a:	00 00                	add    %al,(%eax)
    d57c:	9d                   	popf   
    d57d:	0b 00                	or     (%eax),%eax
    d57f:	00 84 00 00 00 53 9a 	add    %al,-0x65ad0000(%eax,%eax,1)
    d586:	00 00                	add    %al,(%eax)
    d588:	00 00                	add    %al,(%eax)
    d58a:	00 00                	add    %al,(%eax)
    d58c:	44                   	inc    %esp
    d58d:	00 36                	add    %dh,(%esi)
    d58f:	00 43 00             	add    %al,0x0(%ebx)
    d592:	00 00                	add    %al,(%eax)
    d594:	06                   	push   %es
    d595:	00 00                	add    %al,(%eax)
    d597:	00 84 00 00 00 54 9a 	add    %al,-0x65ac0000(%eax,%eax,1)
    d59e:	00 00                	add    %al,(%eax)
    d5a0:	00 00                	add    %al,(%eax)
    d5a2:	00 00                	add    %al,(%eax)
    d5a4:	44                   	inc    %esp
    d5a5:	00 34 00             	add    %dh,(%eax,%eax,1)
    d5a8:	44                   	inc    %esp
    d5a9:	00 00                	add    %al,(%eax)
    d5ab:	00 9d 0b 00 00 84    	add    %bl,-0x7bfffff5(%ebp)
    d5b1:	00 00                	add    %al,(%eax)
    d5b3:	00 56 9a             	add    %dl,-0x66(%esi)
    d5b6:	00 00                	add    %al,(%eax)
    d5b8:	00 00                	add    %al,(%eax)
    d5ba:	00 00                	add    %al,(%eax)
    d5bc:	44                   	inc    %esp
    d5bd:	00 36                	add    %dh,(%esi)
    d5bf:	00 46 00             	add    %al,0x0(%esi)
    d5c2:	00 00                	add    %al,(%eax)
    d5c4:	06                   	push   %es
    d5c5:	00 00                	add    %al,(%eax)
    d5c7:	00 84 00 00 00 5b 9a 	add    %al,-0x65a50000(%eax,%eax,1)
    d5ce:	00 00                	add    %al,(%eax)
    d5d0:	00 00                	add    %al,(%eax)
    d5d2:	00 00                	add    %al,(%eax)
    d5d4:	44                   	inc    %esp
    d5d5:	00 34 00             	add    %dh,(%eax,%eax,1)
    d5d8:	4b                   	dec    %ebx
    d5d9:	00 00                	add    %al,(%eax)
    d5db:	00 00                	add    %al,(%eax)
    d5dd:	00 00                	add    %al,(%eax)
    d5df:	00 44 00 34          	add    %al,0x34(%eax,%eax,1)
    d5e3:	00 4e 00             	add    %cl,0x0(%esi)
    d5e6:	00 00                	add    %al,(%eax)
    d5e8:	9d                   	popf   
    d5e9:	0b 00                	or     (%eax),%eax
    d5eb:	00 84 00 00 00 61 9a 	add    %al,-0x659f0000(%eax,%eax,1)
    d5f2:	00 00                	add    %al,(%eax)
    d5f4:	00 00                	add    %al,(%eax)
    d5f6:	00 00                	add    %al,(%eax)
    d5f8:	44                   	inc    %esp
    d5f9:	00 36                	add    %dh,(%esi)
    d5fb:	00 51 00             	add    %dl,0x0(%ecx)
    d5fe:	00 00                	add    %al,(%eax)
    d600:	00 00                	add    %al,(%eax)
    d602:	00 00                	add    %al,(%eax)
    d604:	44                   	inc    %esp
    d605:	00 18                	add    %bl,(%eax)
    d607:	00 5a 00             	add    %bl,0x0(%edx)
    d60a:	00 00                	add    %al,(%eax)
    d60c:	06                   	push   %es
    d60d:	00 00                	add    %al,(%eax)
    d60f:	00 84 00 00 00 71 9a 	add    %al,-0x658f0000(%eax,%eax,1)
    d616:	00 00                	add    %al,(%eax)
    d618:	00 00                	add    %al,(%eax)
    d61a:	00 00                	add    %al,(%eax)
    d61c:	44                   	inc    %esp
    d61d:	00 27                	add    %ah,(%edi)
    d61f:	00 61 00             	add    %ah,0x0(%ecx)
    d622:	00 00                	add    %al,(%eax)
    d624:	9d                   	popf   
    d625:	0b 00                	or     (%eax),%eax
    d627:	00 84 00 00 00 78 9a 	add    %al,-0x65880000(%eax,%eax,1)
    d62e:	00 00                	add    %al,(%eax)
    d630:	00 00                	add    %al,(%eax)
    d632:	00 00                	add    %al,(%eax)
    d634:	44                   	inc    %esp
    d635:	00 94 00 68 00 00 00 	add    %dl,0x68(%eax,%eax,1)
    d63c:	06                   	push   %es
    d63d:	00 00                	add    %al,(%eax)
    d63f:	00 84 00 00 00 89 9a 	add    %al,-0x65770000(%eax,%eax,1)
    d646:	00 00                	add    %al,(%eax)
    d648:	00 00                	add    %al,(%eax)
    d64a:	00 00                	add    %al,(%eax)
    d64c:	44                   	inc    %esp
    d64d:	00 38                	add    %bh,(%eax)
    d64f:	00 79 00             	add    %bh,0x0(%ecx)
    d652:	00 00                	add    %al,(%eax)
    d654:	e4 0d                	in     $0xd,%al
    d656:	00 00                	add    %al,(%eax)
    d658:	40                   	inc    %eax
    d659:	00 00                	add    %al,(%eax)
    d65b:	00 03                	add    %al,(%ebx)
    d65d:	00 00                	add    %al,(%eax)
    d65f:	00 f2                	add    %dh,%dl
    d661:	0d 00 00 24 00       	or     $0x240000,%eax
    d666:	00 00                	add    %al,(%eax)
    d668:	90                   	nop
    d669:	9a 00 00 02 0e 00 00 	lcall  $0x0,$0xe020000
    d670:	a0 00 00 00 0c       	mov    0xc000000,%al
    d675:	00 00                	add    %al,(%eax)
    d677:	00 15 0e 00 00 a0    	add    %dl,0xa000000e
    d67d:	00 00                	add    %al,(%eax)
    d67f:	00 10                	add    %dl,(%eax)
    d681:	00 00                	add    %al,(%eax)
    d683:	00 d6                	add    %dl,%dh
    d685:	0d 00 00 a0 00       	or     $0xa00000,%eax
    d68a:	00 00                	add    %al,(%eax)
    d68c:	14 00                	adc    $0x0,%al
    d68e:	00 00                	add    %al,(%eax)
    d690:	00 00                	add    %al,(%eax)
    d692:	00 00                	add    %al,(%eax)
    d694:	44                   	inc    %esp
    d695:	00 3c 00             	add    %bh,(%eax,%eax,1)
	...
    d6a0:	44                   	inc    %esp
    d6a1:	00 3c 00             	add    %bh,(%eax,%eax,1)
    d6a4:	06                   	push   %es
    d6a5:	00 00                	add    %al,(%eax)
    d6a7:	00 00                	add    %al,(%eax)
    d6a9:	00 00                	add    %al,(%eax)
    d6ab:	00 44 00 3e          	add    %al,0x3e(%eax,%eax,1)
    d6af:	00 0e                	add    %cl,(%esi)
    d6b1:	00 00                	add    %al,(%eax)
    d6b3:	00 00                	add    %al,(%eax)
    d6b5:	00 00                	add    %al,(%eax)
    d6b7:	00 44 00 3f          	add    %al,0x3f(%eax,%eax,1)
    d6bb:	00 12                	add    %dl,(%edx)
    d6bd:	00 00                	add    %al,(%eax)
    d6bf:	00 00                	add    %al,(%eax)
    d6c1:	00 00                	add    %al,(%eax)
    d6c3:	00 44 00 40          	add    %al,0x40(%eax,%eax,1)
    d6c7:	00 14 00             	add    %dl,(%eax,%eax,1)
    d6ca:	00 00                	add    %al,(%eax)
    d6cc:	00 00                	add    %al,(%eax)
    d6ce:	00 00                	add    %al,(%eax)
    d6d0:	44                   	inc    %esp
    d6d1:	00 3f                	add    %bh,(%edi)
    d6d3:	00 17                	add    %dl,(%edi)
    d6d5:	00 00                	add    %al,(%eax)
    d6d7:	00 00                	add    %al,(%eax)
    d6d9:	00 00                	add    %al,(%eax)
    d6db:	00 44 00 3e          	add    %al,0x3e(%eax,%eax,1)
    d6df:	00 1c 00             	add    %bl,(%eax,%eax,1)
    d6e2:	00 00                	add    %al,(%eax)
    d6e4:	00 00                	add    %al,(%eax)
    d6e6:	00 00                	add    %al,(%eax)
    d6e8:	44                   	inc    %esp
    d6e9:	00 40 00             	add    %al,0x0(%eax)
    d6ec:	1e                   	push   %ds
    d6ed:	00 00                	add    %al,(%eax)
    d6ef:	00 00                	add    %al,(%eax)
    d6f1:	00 00                	add    %al,(%eax)
    d6f3:	00 44 00 3f          	add    %al,0x3f(%eax,%eax,1)
    d6f7:	00 21                	add    %ah,(%ecx)
    d6f9:	00 00                	add    %al,(%eax)
    d6fb:	00 00                	add    %al,(%eax)
    d6fd:	00 00                	add    %al,(%eax)
    d6ff:	00 44 00 43          	add    %al,0x43(%eax,%eax,1)
    d703:	00 23                	add    %ah,(%ebx)
    d705:	00 00                	add    %al,(%eax)
    d707:	00 00                	add    %al,(%eax)
    d709:	00 00                	add    %al,(%eax)
    d70b:	00 44 00 44          	add    %al,0x44(%eax,%eax,1)
    d70f:	00 25 00 00 00 00    	add    %ah,0x0
    d715:	00 00                	add    %al,(%eax)
    d717:	00 44 00 43          	add    %al,0x43(%eax,%eax,1)
    d71b:	00 29                	add    %ch,(%ecx)
    d71d:	00 00                	add    %al,(%eax)
    d71f:	00 00                	add    %al,(%eax)
    d721:	00 00                	add    %al,(%eax)
    d723:	00 44 00 44          	add    %al,0x44(%eax,%eax,1)
    d727:	00 2c 00             	add    %ch,(%eax,%eax,1)
    d72a:	00 00                	add    %al,(%eax)
    d72c:	00 00                	add    %al,(%eax)
    d72e:	00 00                	add    %al,(%eax)
    d730:	44                   	inc    %esp
    d731:	00 43 00             	add    %al,0x0(%ebx)
    d734:	2f                   	das    
    d735:	00 00                	add    %al,(%eax)
    d737:	00 00                	add    %al,(%eax)
    d739:	00 00                	add    %al,(%eax)
    d73b:	00 44 00 44          	add    %al,0x44(%eax,%eax,1)
    d73f:	00 35 00 00 00 00    	add    %dh,0x0
    d745:	00 00                	add    %al,(%eax)
    d747:	00 44 00 43          	add    %al,0x43(%eax,%eax,1)
    d74b:	00 3a                	add    %bh,(%edx)
    d74d:	00 00                	add    %al,(%eax)
    d74f:	00 00                	add    %al,(%eax)
    d751:	00 00                	add    %al,(%eax)
    d753:	00 44 00 46          	add    %al,0x46(%eax,%eax,1)
    d757:	00 3e                	add    %bh,(%esi)
    d759:	00 00                	add    %al,(%eax)
    d75b:	00 22                	add    %ah,(%edx)
    d75d:	0e                   	push   %cs
    d75e:	00 00                	add    %al,(%eax)
    d760:	40                   	inc    %eax
    d761:	00 00                	add    %al,(%eax)
    d763:	00 07                	add    %al,(%edi)
    d765:	00 00                	add    %al,(%eax)
    d767:	00 2e                	add    %ch,(%esi)
    d769:	0e                   	push   %cs
    d76a:	00 00                	add    %al,(%eax)
    d76c:	40                   	inc    %eax
    d76d:	00 00                	add    %al,(%eax)
    d76f:	00 03                	add    %al,(%ebx)
    d771:	00 00                	add    %al,(%eax)
    d773:	00 e4                	add    %ah,%ah
    d775:	0d 00 00 40 00       	or     $0x400000,%eax
    d77a:	00 00                	add    %al,(%eax)
    d77c:	06                   	push   %es
    d77d:	00 00                	add    %al,(%eax)
    d77f:	00 00                	add    %al,(%eax)
    d781:	00 00                	add    %al,(%eax)
    d783:	00 c0                	add    %al,%al
	...
    d78d:	00 00                	add    %al,(%eax)
    d78f:	00 e0                	add    %ah,%al
    d791:	00 00                	add    %al,(%eax)
    d793:	00 45 00             	add    %al,0x0(%ebp)
    d796:	00 00                	add    %al,(%eax)
    d798:	39 0e                	cmp    %ecx,(%esi)
    d79a:	00 00                	add    %al,(%eax)
    d79c:	24 00                	and    $0x0,%al
    d79e:	00 00                	add    %al,(%eax)
    d7a0:	e0 9a                	loopne d73c <.stab+0x73c>
    d7a2:	00 00                	add    %al,(%eax)
    d7a4:	00 00                	add    %al,(%eax)
    d7a6:	00 00                	add    %al,(%eax)
    d7a8:	44                   	inc    %esp
    d7a9:	00 0e                	add    %cl,(%esi)
	...
    d7b3:	00 44 00 40          	add    %al,0x40(%eax,%eax,1)
    d7b7:	00 04 00             	add    %al,(%eax,%eax,1)
    d7ba:	00 00                	add    %al,(%eax)
    d7bc:	00 00                	add    %al,(%eax)
    d7be:	00 00                	add    %al,(%eax)
    d7c0:	44                   	inc    %esp
    d7c1:	00 0e                	add    %cl,(%esi)
    d7c3:	00 09                	add    %cl,(%ecx)
    d7c5:	00 00                	add    %al,(%eax)
    d7c7:	00 00                	add    %al,(%eax)
    d7c9:	00 00                	add    %al,(%eax)
    d7cb:	00 44 00 44          	add    %al,0x44(%eax,%eax,1)
    d7cf:	00 10                	add    %dl,(%eax)
    d7d1:	00 00                	add    %al,(%eax)
    d7d3:	00 00                	add    %al,(%eax)
    d7d5:	00 00                	add    %al,(%eax)
    d7d7:	00 44 00 43          	add    %al,0x43(%eax,%eax,1)
    d7db:	00 16                	add    %dl,(%esi)
    d7dd:	00 00                	add    %al,(%eax)
    d7df:	00 00                	add    %al,(%eax)
    d7e1:	00 00                	add    %al,(%eax)
    d7e3:	00 44 00 44          	add    %al,0x44(%eax,%eax,1)
    d7e7:	00 19                	add    %bl,(%ecx)
    d7e9:	00 00                	add    %al,(%eax)
    d7eb:	00 00                	add    %al,(%eax)
    d7ed:	00 00                	add    %al,(%eax)
    d7ef:	00 44 00 43          	add    %al,0x43(%eax,%eax,1)
    d7f3:	00 29                	add    %ch,(%ecx)
    d7f5:	00 00                	add    %al,(%eax)
    d7f7:	00 00                	add    %al,(%eax)
    d7f9:	00 00                	add    %al,(%eax)
    d7fb:	00 44 00 17          	add    %al,0x17(%eax,%eax,1)
    d7ff:	00 2e                	add    %ch,(%esi)
    d801:	00 00                	add    %al,(%eax)
    d803:	00 00                	add    %al,(%eax)
    d805:	00 00                	add    %al,(%eax)
    d807:	00 44 00 16          	add    %al,0x16(%eax,%eax,1)
    d80b:	00 30                	add    %dh,(%eax)
    d80d:	00 00                	add    %al,(%eax)
    d80f:	00 00                	add    %al,(%eax)
    d811:	00 00                	add    %al,(%eax)
    d813:	00 44 00 19          	add    %al,0x19(%eax,%eax,1)
    d817:	00 3c 00             	add    %bh,(%eax,%eax,1)
    d81a:	00 00                	add    %al,(%eax)
    d81c:	00 00                	add    %al,(%eax)
    d81e:	00 00                	add    %al,(%eax)
    d820:	44                   	inc    %esp
    d821:	00 1a                	add    %bl,(%edx)
    d823:	00 41 00             	add    %al,0x0(%ecx)
    d826:	00 00                	add    %al,(%eax)
    d828:	9d                   	popf   
    d829:	0b 00                	or     (%eax),%eax
    d82b:	00 84 00 00 00 28 9b 	add    %al,-0x64d80000(%eax,%eax,1)
    d832:	00 00                	add    %al,(%eax)
    d834:	00 00                	add    %al,(%eax)
    d836:	00 00                	add    %al,(%eax)
    d838:	44                   	inc    %esp
    d839:	00 8b 00 48 00 00    	add    %cl,0x4800(%ebx)
    d83f:	00 06                	add    %al,(%esi)
    d841:	00 00                	add    %al,(%eax)
    d843:	00 84 00 00 00 2a 9b 	add    %al,-0x64d60000(%eax,%eax,1)
    d84a:	00 00                	add    %al,(%eax)
    d84c:	00 00                	add    %al,(%eax)
    d84e:	00 00                	add    %al,(%eax)
    d850:	44                   	inc    %esp
    d851:	00 19                	add    %bl,(%ecx)
    d853:	00 4a 00             	add    %cl,0x0(%edx)
    d856:	00 00                	add    %al,(%eax)
    d858:	00 00                	add    %al,(%eax)
    d85a:	00 00                	add    %al,(%eax)
    d85c:	44                   	inc    %esp
    d85d:	00 1a                	add    %bl,(%edx)
    d85f:	00 50 00             	add    %dl,0x0(%eax)
    d862:	00 00                	add    %al,(%eax)
    d864:	00 00                	add    %al,(%eax)
    d866:	00 00                	add    %al,(%eax)
    d868:	44                   	inc    %esp
    d869:	00 1a                	add    %bl,(%edx)
    d86b:	00 53 00             	add    %dl,0x0(%ebx)
    d86e:	00 00                	add    %al,(%eax)
    d870:	00 00                	add    %al,(%eax)
    d872:	00 00                	add    %al,(%eax)
    d874:	44                   	inc    %esp
    d875:	00 1b                	add    %bl,(%ebx)
    d877:	00 55 00             	add    %dl,0x0(%ebp)
    d87a:	00 00                	add    %al,(%eax)
    d87c:	00 00                	add    %al,(%eax)
    d87e:	00 00                	add    %al,(%eax)
    d880:	44                   	inc    %esp
    d881:	00 1d 00 60 00 00    	add    %bl,0x6000
    d887:	00 00                	add    %al,(%eax)
    d889:	00 00                	add    %al,(%eax)
    d88b:	00 44 00 1c          	add    %al,0x1c(%eax,%eax,1)
    d88f:	00 63 00             	add    %ah,0x0(%ebx)
    d892:	00 00                	add    %al,(%eax)
    d894:	00 00                	add    %al,(%eax)
    d896:	00 00                	add    %al,(%eax)
    d898:	44                   	inc    %esp
    d899:	00 1d 00 66 00 00    	add    %bl,0x6600
    d89f:	00 00                	add    %al,(%eax)
    d8a1:	00 00                	add    %al,(%eax)
    d8a3:	00 44 00 1e          	add    %al,0x1e(%eax,%eax,1)
    d8a7:	00 79 00             	add    %bh,0x0(%ecx)
    d8aa:	00 00                	add    %al,(%eax)
    d8ac:	00 00                	add    %al,(%eax)
    d8ae:	00 00                	add    %al,(%eax)
    d8b0:	44                   	inc    %esp
    d8b1:	00 1e                	add    %bl,(%esi)
    d8b3:	00 7c 00 00          	add    %bh,0x0(%eax,%eax,1)
    d8b7:	00 00                	add    %al,(%eax)
    d8b9:	00 00                	add    %al,(%eax)
    d8bb:	00 44 00 1e          	add    %al,0x1e(%eax,%eax,1)
    d8bf:	00 7f 00             	add    %bh,0x0(%edi)
    d8c2:	00 00                	add    %al,(%eax)
    d8c4:	00 00                	add    %al,(%eax)
    d8c6:	00 00                	add    %al,(%eax)
    d8c8:	44                   	inc    %esp
    d8c9:	00 1f                	add    %bl,(%edi)
    d8cb:	00 83 00 00 00 00    	add    %al,0x0(%ebx)
    d8d1:	00 00                	add    %al,(%eax)
    d8d3:	00 44 00 1f          	add    %al,0x1f(%eax,%eax,1)
    d8d7:	00 85 00 00 00 9d    	add    %al,-0x63000000(%ebp)
    d8dd:	0b 00                	or     (%eax),%eax
    d8df:	00 84 00 00 00 67 9b 	add    %al,-0x64990000(%eax,%eax,1)
    d8e6:	00 00                	add    %al,(%eax)
    d8e8:	00 00                	add    %al,(%eax)
    d8ea:	00 00                	add    %al,(%eax)
    d8ec:	44                   	inc    %esp
    d8ed:	00 8b 00 87 00 00    	add    %cl,0x8700(%ebx)
    d8f3:	00 06                	add    %al,(%esi)
    d8f5:	00 00                	add    %al,(%eax)
    d8f7:	00 84 00 00 00 6c 9b 	add    %al,-0x64940000(%eax,%eax,1)
    d8fe:	00 00                	add    %al,(%eax)
    d900:	00 00                	add    %al,(%eax)
    d902:	00 00                	add    %al,(%eax)
    d904:	44                   	inc    %esp
    d905:	00 1b                	add    %bl,(%ebx)
    d907:	00 8c 00 00 00 00 00 	add    %cl,0x0(%eax,%eax,1)
    d90e:	00 00                	add    %al,(%eax)
    d910:	44                   	inc    %esp
    d911:	00 1b                	add    %bl,(%ebx)
    d913:	00 8f 00 00 00 00    	add    %cl,0x0(%edi)
    d919:	00 00                	add    %al,(%eax)
    d91b:	00 44 00 21          	add    %al,0x21(%eax,%eax,1)
    d91f:	00 93 00 00 00 00    	add    %dl,0x0(%ebx)
    d925:	00 00                	add    %al,(%eax)
    d927:	00 44 00 22          	add    %al,0x22(%eax,%eax,1)
    d92b:	00 98 00 00 00 54    	add    %bl,0x54000000(%eax)
    d931:	0e                   	push   %cs
    d932:	00 00                	add    %al,(%eax)
    d934:	40                   	inc    %eax
    d935:	00 00                	add    %al,(%eax)
    d937:	00 03                	add    %al,(%ebx)
    d939:	00 00                	add    %al,(%eax)
    d93b:	00 67 0e             	add    %ah,0xe(%edi)
    d93e:	00 00                	add    %al,(%eax)
    d940:	40                   	inc    %eax
    d941:	00 00                	add    %al,(%eax)
    d943:	00 06                	add    %al,(%esi)
    d945:	00 00                	add    %al,(%eax)
    d947:	00 2e                	add    %ch,(%esi)
    d949:	0e                   	push   %cs
    d94a:	00 00                	add    %al,(%eax)
    d94c:	40                   	inc    %eax
    d94d:	00 00                	add    %al,(%eax)
    d94f:	00 07                	add    %al,(%edi)
    d951:	00 00                	add    %al,(%eax)
    d953:	00 00                	add    %al,(%eax)
    d955:	00 00                	add    %al,(%eax)
    d957:	00 c0                	add    %al,%al
    d959:	00 00                	add    %al,(%eax)
    d95b:	00 00                	add    %al,(%eax)
    d95d:	00 00                	add    %al,(%eax)
    d95f:	00 e4                	add    %ah,%ah
    d961:	0d 00 00 40 00       	or     $0x400000,%eax
    d966:	00 00                	add    %al,(%eax)
    d968:	03 00                	add    (%eax),%eax
    d96a:	00 00                	add    %al,(%eax)
    d96c:	00 00                	add    %al,(%eax)
    d96e:	00 00                	add    %al,(%eax)
    d970:	c0 00 00             	rolb   $0x0,(%eax)
    d973:	00 04 00             	add    %al,(%eax,%eax,1)
    d976:	00 00                	add    %al,(%eax)
    d978:	00 00                	add    %al,(%eax)
    d97a:	00 00                	add    %al,(%eax)
    d97c:	e0 00                	loopne d97e <.stab+0x97e>
    d97e:	00 00                	add    %al,(%eax)
    d980:	09 00                	or     %eax,(%eax)
    d982:	00 00                	add    %al,(%eax)
    d984:	e4 0d                	in     $0xd,%al
    d986:	00 00                	add    %al,(%eax)
    d988:	40                   	inc    %eax
    d989:	00 00                	add    %al,(%eax)
    d98b:	00 03                	add    %al,(%ebx)
    d98d:	00 00                	add    %al,(%eax)
    d98f:	00 00                	add    %al,(%eax)
    d991:	00 00                	add    %al,(%eax)
    d993:	00 c0                	add    %al,%al
    d995:	00 00                	add    %al,(%eax)
    d997:	00 10                	add    %dl,(%eax)
    d999:	00 00                	add    %al,(%eax)
    d99b:	00 00                	add    %al,(%eax)
    d99d:	00 00                	add    %al,(%eax)
    d99f:	00 e0                	add    %ah,%al
    d9a1:	00 00                	add    %al,(%eax)
    d9a3:	00 2e                	add    %ch,(%esi)
    d9a5:	00 00                	add    %al,(%eax)
    d9a7:	00 00                	add    %al,(%eax)
    d9a9:	00 00                	add    %al,(%eax)
    d9ab:	00 e0                	add    %ah,%al
    d9ad:	00 00                	add    %al,(%eax)
    d9af:	00 a0 00 00 00 00    	add    %ah,0x0(%eax)
    d9b5:	00 00                	add    %al,(%eax)
    d9b7:	00 64 00 00          	add    %ah,0x0(%eax,%eax,1)
    d9bb:	00                   	.byte 0x0
    d9bc:	80                   	.byte 0x80
    d9bd:	9b                   	fwait
	...

Disassembly of section .stabstr:

0000e000 <.stabstr>:
    e000:	00 6c 6b 2e          	add    %ch,0x2e(%ebx,%ebp,2)
    e004:	63 00                	arpl   %ax,(%eax)
    e006:	62 6f 6f             	bound  %ebp,0x6f(%edi)
    e009:	74 2f                	je     e03a <___crt_xc_end__+0x103a>
    e00b:	6c                   	insb   (%dx),%es:(%edi)
    e00c:	6b 2e 63             	imul   $0x63,(%esi),%ebp
    e00f:	00 67 63             	add    %ah,0x63(%edi)
    e012:	63 32                	arpl   %si,(%edx)
    e014:	5f                   	pop    %edi
    e015:	63 6f 6d             	arpl   %bp,0x6d(%edi)
    e018:	70 69                	jo     e083 <___crt_xc_end__+0x1083>
    e01a:	6c                   	insb   (%dx),%es:(%edi)
    e01b:	65 64 2e 00 69 6e    	gs fs add %ch,%cs:0x6e(%ecx)
    e021:	74 3a                	je     e05d <___crt_xc_end__+0x105d>
    e023:	74 28                	je     e04d <___crt_xc_end__+0x104d>
    e025:	30 2c 31             	xor    %ch,(%ecx,%esi,1)
    e028:	29 3d 72 28 30 2c    	sub    %edi,0x2c302872
    e02e:	31 29                	xor    %ebp,(%ecx)
    e030:	3b 2d 32 31 34 37    	cmp    0x37343132,%ebp
    e036:	34 38                	xor    $0x38,%al
    e038:	33 36                	xor    (%esi),%esi
    e03a:	34 38                	xor    $0x38,%al
    e03c:	3b 32                	cmp    (%edx),%esi
    e03e:	31 34 37             	xor    %esi,(%edi,%esi,1)
    e041:	34 38                	xor    $0x38,%al
    e043:	33 36                	xor    (%esi),%esi
    e045:	34 37                	xor    $0x37,%al
    e047:	3b 00                	cmp    (%eax),%eax
    e049:	63 68 61             	arpl   %bp,0x61(%eax)
    e04c:	72 3a                	jb     e088 <___crt_xc_end__+0x1088>
    e04e:	74 28                	je     e078 <___crt_xc_end__+0x1078>
    e050:	30 2c 32             	xor    %ch,(%edx,%esi,1)
    e053:	29 3d 72 28 30 2c    	sub    %edi,0x2c302872
    e059:	32 29                	xor    (%ecx),%ch
    e05b:	3b 30                	cmp    (%eax),%esi
    e05d:	3b 31                	cmp    (%ecx),%esi
    e05f:	32 37                	xor    (%edi),%dh
    e061:	3b 00                	cmp    (%eax),%eax
    e063:	6c                   	insb   (%dx),%es:(%edi)
    e064:	6f                   	outsl  %ds:(%esi),(%dx)
    e065:	6e                   	outsb  %ds:(%esi),(%dx)
    e066:	67 20 69 6e          	and    %ch,0x6e(%bx,%di)
    e06a:	74 3a                	je     e0a6 <___crt_xc_end__+0x10a6>
    e06c:	74 28                	je     e096 <___crt_xc_end__+0x1096>
    e06e:	30 2c 33             	xor    %ch,(%ebx,%esi,1)
    e071:	29 3d 72 28 30 2c    	sub    %edi,0x2c302872
    e077:	33 29                	xor    (%ecx),%ebp
    e079:	3b 2d 32 31 34 37    	cmp    0x37343132,%ebp
    e07f:	34 38                	xor    $0x38,%al
    e081:	33 36                	xor    (%esi),%esi
    e083:	34 38                	xor    $0x38,%al
    e085:	3b 32                	cmp    (%edx),%esi
    e087:	31 34 37             	xor    %esi,(%edi,%esi,1)
    e08a:	34 38                	xor    $0x38,%al
    e08c:	33 36                	xor    (%esi),%esi
    e08e:	34 37                	xor    $0x37,%al
    e090:	3b 00                	cmp    (%eax),%eax
    e092:	75 6e                	jne    e102 <___crt_xc_end__+0x1102>
    e094:	73 69                	jae    e0ff <___crt_xc_end__+0x10ff>
    e096:	67 6e                	outsb  %ds:(%si),(%dx)
    e098:	65 64 20 69 6e       	gs and %ch,%fs:0x6e(%ecx)
    e09d:	74 3a                	je     e0d9 <___crt_xc_end__+0x10d9>
    e09f:	74 28                	je     e0c9 <___crt_xc_end__+0x10c9>
    e0a1:	30 2c 34             	xor    %ch,(%esp,%esi,1)
    e0a4:	29 3d 72 28 30 2c    	sub    %edi,0x2c302872
    e0aa:	34 29                	xor    $0x29,%al
    e0ac:	3b 30                	cmp    (%eax),%esi
    e0ae:	3b 34 32             	cmp    (%edx,%esi,1),%esi
    e0b1:	39 34 39             	cmp    %esi,(%ecx,%edi,1)
    e0b4:	36 37                	ss aaa 
    e0b6:	32 39                	xor    (%ecx),%bh
    e0b8:	35 3b 00 6c 6f       	xor    $0x6f6c003b,%eax
    e0bd:	6e                   	outsb  %ds:(%esi),(%dx)
    e0be:	67 20 75 6e          	and    %dh,0x6e(%di)
    e0c2:	73 69                	jae    e12d <___crt_xc_end__+0x112d>
    e0c4:	67 6e                	outsb  %ds:(%si),(%dx)
    e0c6:	65 64 20 69 6e       	gs and %ch,%fs:0x6e(%ecx)
    e0cb:	74 3a                	je     e107 <___crt_xc_end__+0x1107>
    e0cd:	74 28                	je     e0f7 <___crt_xc_end__+0x10f7>
    e0cf:	30 2c 35 29 3d 72 28 	xor    %ch,0x28723d29(,%esi,1)
    e0d6:	30 2c 35 29 3b 30 3b 	xor    %ch,0x3b303b29(,%esi,1)
    e0dd:	34 32                	xor    $0x32,%al
    e0df:	39 34 39             	cmp    %esi,(%ecx,%edi,1)
    e0e2:	36 37                	ss aaa 
    e0e4:	32 39                	xor    (%ecx),%bh
    e0e6:	35 3b 00 5f 5f       	xor    $0x5f5f003b,%eax
    e0eb:	69 6e 74 31 32 38 3a 	imul   $0x3a383231,0x74(%esi),%ebp
    e0f2:	74 28                	je     e11c <___crt_xc_end__+0x111c>
    e0f4:	30 2c 36             	xor    %ch,(%esi,%esi,1)
    e0f7:	29 3d 72 28 30 2c    	sub    %edi,0x2c302872
    e0fd:	36 29 3b             	sub    %edi,%ss:(%ebx)
    e100:	30 3b                	xor    %bh,(%ebx)
    e102:	2d 31 3b 00 5f       	sub    $0x5f003b31,%eax
    e107:	5f                   	pop    %edi
    e108:	69 6e 74 31 32 38 20 	imul   $0x20383231,0x74(%esi),%ebp
    e10f:	75 6e                	jne    e17f <___crt_xc_end__+0x117f>
    e111:	73 69                	jae    e17c <___crt_xc_end__+0x117c>
    e113:	67 6e                	outsb  %ds:(%si),(%dx)
    e115:	65 64 3a 74 28 30    	gs cmp %fs:0x30(%eax,%ebp,1),%dh
    e11b:	2c 37                	sub    $0x37,%al
    e11d:	29 3d 72 28 30 2c    	sub    %edi,0x2c302872
    e123:	37                   	aaa    
    e124:	29 3b                	sub    %edi,(%ebx)
    e126:	30 3b                	xor    %bh,(%ebx)
    e128:	2d 31 3b 00 6c       	sub    $0x6c003b31,%eax
    e12d:	6f                   	outsl  %ds:(%esi),(%dx)
    e12e:	6e                   	outsb  %ds:(%esi),(%dx)
    e12f:	67 20 6c 6f          	and    %ch,0x6f(%si)
    e133:	6e                   	outsb  %ds:(%esi),(%dx)
    e134:	67 20 69 6e          	and    %ch,0x6e(%bx,%di)
    e138:	74 3a                	je     e174 <___crt_xc_end__+0x1174>
    e13a:	74 28                	je     e164 <___crt_xc_end__+0x1164>
    e13c:	30 2c 38             	xor    %ch,(%eax,%edi,1)
    e13f:	29 3d 72 28 30 2c    	sub    %edi,0x2c302872
    e145:	38 29                	cmp    %ch,(%ecx)
    e147:	3b 2d 39 32 32 33    	cmp    0x33323239,%ebp
    e14d:	33 37                	xor    (%edi),%esi
    e14f:	32 30                	xor    (%eax),%dh
    e151:	33 36                	xor    (%esi),%esi
    e153:	38 35 34 37 37 35    	cmp    %dh,0x35373734
    e159:	38 30                	cmp    %dh,(%eax)
    e15b:	38 3b                	cmp    %bh,(%ebx)
    e15d:	39 32                	cmp    %esi,(%edx)
    e15f:	32 33                	xor    (%ebx),%dh
    e161:	33 37                	xor    (%edi),%esi
    e163:	32 30                	xor    (%eax),%dh
    e165:	33 36                	xor    (%esi),%esi
    e167:	38 35 34 37 37 35    	cmp    %dh,0x35373734
    e16d:	38 30                	cmp    %dh,(%eax)
    e16f:	37                   	aaa    
    e170:	3b 00                	cmp    (%eax),%eax
    e172:	6c                   	insb   (%dx),%es:(%edi)
    e173:	6f                   	outsl  %ds:(%esi),(%dx)
    e174:	6e                   	outsb  %ds:(%esi),(%dx)
    e175:	67 20 6c 6f          	and    %ch,0x6f(%si)
    e179:	6e                   	outsb  %ds:(%esi),(%dx)
    e17a:	67 20 75 6e          	and    %dh,0x6e(%di)
    e17e:	73 69                	jae    e1e9 <___crt_xc_end__+0x11e9>
    e180:	67 6e                	outsb  %ds:(%si),(%dx)
    e182:	65 64 20 69 6e       	gs and %ch,%fs:0x6e(%ecx)
    e187:	74 3a                	je     e1c3 <___crt_xc_end__+0x11c3>
    e189:	74 28                	je     e1b3 <___crt_xc_end__+0x11b3>
    e18b:	30 2c 39             	xor    %ch,(%ecx,%edi,1)
    e18e:	29 3d 72 28 30 2c    	sub    %edi,0x2c302872
    e194:	39 29                	cmp    %ebp,(%ecx)
    e196:	3b 30                	cmp    (%eax),%esi
    e198:	3b 2d 31 3b 00 73    	cmp    0x73003b31,%ebp
    e19e:	68 6f 72 74 20       	push   $0x2074726f
    e1a3:	69 6e 74 3a 74 28 30 	imul   $0x3028743a,0x74(%esi),%ebp
    e1aa:	2c 31                	sub    $0x31,%al
    e1ac:	30 29                	xor    %ch,(%ecx)
    e1ae:	3d 72 28 30 2c       	cmp    $0x2c302872,%eax
    e1b3:	31 30                	xor    %esi,(%eax)
    e1b5:	29 3b                	sub    %edi,(%ebx)
    e1b7:	2d 33 32 37 36       	sub    $0x36373233,%eax
    e1bc:	38 3b                	cmp    %bh,(%ebx)
    e1be:	33 32                	xor    (%edx),%esi
    e1c0:	37                   	aaa    
    e1c1:	36 37                	ss aaa 
    e1c3:	3b 00                	cmp    (%eax),%eax
    e1c5:	73 68                	jae    e22f <___crt_xc_end__+0x122f>
    e1c7:	6f                   	outsl  %ds:(%esi),(%dx)
    e1c8:	72 74                	jb     e23e <___crt_xc_end__+0x123e>
    e1ca:	20 75 6e             	and    %dh,0x6e(%ebp)
    e1cd:	73 69                	jae    e238 <___crt_xc_end__+0x1238>
    e1cf:	67 6e                	outsb  %ds:(%si),(%dx)
    e1d1:	65 64 20 69 6e       	gs and %ch,%fs:0x6e(%ecx)
    e1d6:	74 3a                	je     e212 <___crt_xc_end__+0x1212>
    e1d8:	74 28                	je     e202 <___crt_xc_end__+0x1202>
    e1da:	30 2c 31             	xor    %ch,(%ecx,%esi,1)
    e1dd:	31 29                	xor    %ebp,(%ecx)
    e1df:	3d 72 28 30 2c       	cmp    $0x2c302872,%eax
    e1e4:	31 31                	xor    %esi,(%ecx)
    e1e6:	29 3b                	sub    %edi,(%ebx)
    e1e8:	30 3b                	xor    %bh,(%ebx)
    e1ea:	36 35 35 33 35 3b    	ss xor $0x3b353335,%eax
    e1f0:	00 73 69             	add    %dh,0x69(%ebx)
    e1f3:	67 6e                	outsb  %ds:(%si),(%dx)
    e1f5:	65 64 20 63 68       	gs and %ah,%fs:0x68(%ebx)
    e1fa:	61                   	popa   
    e1fb:	72 3a                	jb     e237 <___crt_xc_end__+0x1237>
    e1fd:	74 28                	je     e227 <___crt_xc_end__+0x1227>
    e1ff:	30 2c 31             	xor    %ch,(%ecx,%esi,1)
    e202:	32 29                	xor    (%ecx),%ch
    e204:	3d 72 28 30 2c       	cmp    $0x2c302872,%eax
    e209:	31 32                	xor    %esi,(%edx)
    e20b:	29 3b                	sub    %edi,(%ebx)
    e20d:	2d 31 32 38 3b       	sub    $0x3b383231,%eax
    e212:	31 32                	xor    %esi,(%edx)
    e214:	37                   	aaa    
    e215:	3b 00                	cmp    (%eax),%eax
    e217:	75 6e                	jne    e287 <___crt_xc_end__+0x1287>
    e219:	73 69                	jae    e284 <___crt_xc_end__+0x1284>
    e21b:	67 6e                	outsb  %ds:(%si),(%dx)
    e21d:	65 64 20 63 68       	gs and %ah,%fs:0x68(%ebx)
    e222:	61                   	popa   
    e223:	72 3a                	jb     e25f <___crt_xc_end__+0x125f>
    e225:	74 28                	je     e24f <___crt_xc_end__+0x124f>
    e227:	30 2c 31             	xor    %ch,(%ecx,%esi,1)
    e22a:	33 29                	xor    (%ecx),%ebp
    e22c:	3d 72 28 30 2c       	cmp    $0x2c302872,%eax
    e231:	31 33                	xor    %esi,(%ebx)
    e233:	29 3b                	sub    %edi,(%ebx)
    e235:	30 3b                	xor    %bh,(%ebx)
    e237:	32 35 35 3b 00 66    	xor    0x66003b35,%dh
    e23d:	6c                   	insb   (%dx),%es:(%edi)
    e23e:	6f                   	outsl  %ds:(%esi),(%dx)
    e23f:	61                   	popa   
    e240:	74 3a                	je     e27c <___crt_xc_end__+0x127c>
    e242:	74 28                	je     e26c <___crt_xc_end__+0x126c>
    e244:	30 2c 31             	xor    %ch,(%ecx,%esi,1)
    e247:	34 29                	xor    $0x29,%al
    e249:	3d 72 28 30 2c       	cmp    $0x2c302872,%eax
    e24e:	31 29                	xor    %ebp,(%ecx)
    e250:	3b 34 3b             	cmp    (%ebx,%edi,1),%esi
    e253:	30 3b                	xor    %bh,(%ebx)
    e255:	00 64 6f 75          	add    %ah,0x75(%edi,%ebp,2)
    e259:	62 6c 65 3a          	bound  %ebp,0x3a(%ebp,%eiz,2)
    e25d:	74 28                	je     e287 <___crt_xc_end__+0x1287>
    e25f:	30 2c 31             	xor    %ch,(%ecx,%esi,1)
    e262:	35 29 3d 72 28       	xor    $0x28723d29,%eax
    e267:	30 2c 31             	xor    %ch,(%ecx,%esi,1)
    e26a:	29 3b                	sub    %edi,(%ebx)
    e26c:	38 3b                	cmp    %bh,(%ebx)
    e26e:	30 3b                	xor    %bh,(%ebx)
    e270:	00 6c 6f 6e          	add    %ch,0x6e(%edi,%ebp,2)
    e274:	67 20 64 6f          	and    %ah,0x6f(%si)
    e278:	75 62                	jne    e2dc <___crt_xc_end__+0x12dc>
    e27a:	6c                   	insb   (%dx),%es:(%edi)
    e27b:	65 3a 74 28 30       	cmp    %gs:0x30(%eax,%ebp,1),%dh
    e280:	2c 31                	sub    $0x31,%al
    e282:	36 29 3d 72 28 30 2c 	sub    %edi,%ss:0x2c302872
    e289:	31 29                	xor    %ebp,(%ecx)
    e28b:	3b 31                	cmp    (%ecx),%esi
    e28d:	32 3b                	xor    (%ebx),%bh
    e28f:	30 3b                	xor    %bh,(%ebx)
    e291:	00 5f 46             	add    %bl,0x46(%edi)
    e294:	6c                   	insb   (%dx),%es:(%edi)
    e295:	6f                   	outsl  %ds:(%esi),(%dx)
    e296:	61                   	popa   
    e297:	74 33                	je     e2cc <___crt_xc_end__+0x12cc>
    e299:	32 3a                	xor    (%edx),%bh
    e29b:	74 28                	je     e2c5 <___crt_xc_end__+0x12c5>
    e29d:	30 2c 31             	xor    %ch,(%ecx,%esi,1)
    e2a0:	37                   	aaa    
    e2a1:	29 3d 72 28 30 2c    	sub    %edi,0x2c302872
    e2a7:	31 29                	xor    %ebp,(%ecx)
    e2a9:	3b 34 3b             	cmp    (%ebx,%edi,1),%esi
    e2ac:	30 3b                	xor    %bh,(%ebx)
    e2ae:	00 5f 46             	add    %bl,0x46(%edi)
    e2b1:	6c                   	insb   (%dx),%es:(%edi)
    e2b2:	6f                   	outsl  %ds:(%esi),(%dx)
    e2b3:	61                   	popa   
    e2b4:	74 36                	je     e2ec <___crt_xc_end__+0x12ec>
    e2b6:	34 3a                	xor    $0x3a,%al
    e2b8:	74 28                	je     e2e2 <___crt_xc_end__+0x12e2>
    e2ba:	30 2c 31             	xor    %ch,(%ecx,%esi,1)
    e2bd:	38 29                	cmp    %ch,(%ecx)
    e2bf:	3d 72 28 30 2c       	cmp    $0x2c302872,%eax
    e2c4:	31 29                	xor    %ebp,(%ecx)
    e2c6:	3b 38                	cmp    (%eax),%edi
    e2c8:	3b 30                	cmp    (%eax),%esi
    e2ca:	3b 00                	cmp    (%eax),%eax
    e2cc:	5f                   	pop    %edi
    e2cd:	46                   	inc    %esi
    e2ce:	6c                   	insb   (%dx),%es:(%edi)
    e2cf:	6f                   	outsl  %ds:(%esi),(%dx)
    e2d0:	61                   	popa   
    e2d1:	74 31                	je     e304 <___crt_xc_end__+0x1304>
    e2d3:	32 38                	xor    (%eax),%bh
    e2d5:	3a 74 28 30          	cmp    0x30(%eax,%ebp,1),%dh
    e2d9:	2c 31                	sub    $0x31,%al
    e2db:	39 29                	cmp    %ebp,(%ecx)
    e2dd:	3d 72 28 30 2c       	cmp    $0x2c302872,%eax
    e2e2:	31 29                	xor    %ebp,(%ecx)
    e2e4:	3b 31                	cmp    (%ecx),%esi
    e2e6:	36 3b 30             	cmp    %ss:(%eax),%esi
    e2e9:	3b 00                	cmp    (%eax),%eax
    e2eb:	5f                   	pop    %edi
    e2ec:	46                   	inc    %esi
    e2ed:	6c                   	insb   (%dx),%es:(%edi)
    e2ee:	6f                   	outsl  %ds:(%esi),(%dx)
    e2ef:	61                   	popa   
    e2f0:	74 33                	je     e325 <___crt_xc_end__+0x1325>
    e2f2:	32 78 3a             	xor    0x3a(%eax),%bh
    e2f5:	74 28                	je     e31f <___crt_xc_end__+0x131f>
    e2f7:	30 2c 32             	xor    %ch,(%edx,%esi,1)
    e2fa:	30 29                	xor    %ch,(%ecx)
    e2fc:	3d 72 28 30 2c       	cmp    $0x2c302872,%eax
    e301:	31 29                	xor    %ebp,(%ecx)
    e303:	3b 38                	cmp    (%eax),%edi
    e305:	3b 30                	cmp    (%eax),%esi
    e307:	3b 00                	cmp    (%eax),%eax
    e309:	5f                   	pop    %edi
    e30a:	46                   	inc    %esi
    e30b:	6c                   	insb   (%dx),%es:(%edi)
    e30c:	6f                   	outsl  %ds:(%esi),(%dx)
    e30d:	61                   	popa   
    e30e:	74 36                	je     e346 <___crt_xc_end__+0x1346>
    e310:	34 78                	xor    $0x78,%al
    e312:	3a 74 28 30          	cmp    0x30(%eax,%ebp,1),%dh
    e316:	2c 32                	sub    $0x32,%al
    e318:	31 29                	xor    %ebp,(%ecx)
    e31a:	3d 72 28 30 2c       	cmp    $0x2c302872,%eax
    e31f:	31 29                	xor    %ebp,(%ecx)
    e321:	3b 31                	cmp    (%ecx),%esi
    e323:	32 3b                	xor    (%ebx),%bh
    e325:	30 3b                	xor    %bh,(%ebx)
    e327:	00 5f 44             	add    %bl,0x44(%edi)
    e32a:	65 63 69 6d          	arpl   %bp,%gs:0x6d(%ecx)
    e32e:	61                   	popa   
    e32f:	6c                   	insb   (%dx),%es:(%edi)
    e330:	33 32                	xor    (%edx),%esi
    e332:	3a 74 28 30          	cmp    0x30(%eax,%ebp,1),%dh
    e336:	2c 32                	sub    $0x32,%al
    e338:	32 29                	xor    (%ecx),%ch
    e33a:	3d 72 28 30 2c       	cmp    $0x2c302872,%eax
    e33f:	31 29                	xor    %ebp,(%ecx)
    e341:	3b 34 3b             	cmp    (%ebx,%edi,1),%esi
    e344:	30 3b                	xor    %bh,(%ebx)
    e346:	00 5f 44             	add    %bl,0x44(%edi)
    e349:	65 63 69 6d          	arpl   %bp,%gs:0x6d(%ecx)
    e34d:	61                   	popa   
    e34e:	6c                   	insb   (%dx),%es:(%edi)
    e34f:	36 34 3a             	ss xor $0x3a,%al
    e352:	74 28                	je     e37c <___crt_xc_end__+0x137c>
    e354:	30 2c 32             	xor    %ch,(%edx,%esi,1)
    e357:	33 29                	xor    (%ecx),%ebp
    e359:	3d 72 28 30 2c       	cmp    $0x2c302872,%eax
    e35e:	31 29                	xor    %ebp,(%ecx)
    e360:	3b 38                	cmp    (%eax),%edi
    e362:	3b 30                	cmp    (%eax),%esi
    e364:	3b 00                	cmp    (%eax),%eax
    e366:	5f                   	pop    %edi
    e367:	44                   	inc    %esp
    e368:	65 63 69 6d          	arpl   %bp,%gs:0x6d(%ecx)
    e36c:	61                   	popa   
    e36d:	6c                   	insb   (%dx),%es:(%edi)
    e36e:	31 32                	xor    %esi,(%edx)
    e370:	38 3a                	cmp    %bh,(%edx)
    e372:	74 28                	je     e39c <___crt_xc_end__+0x139c>
    e374:	30 2c 32             	xor    %ch,(%edx,%esi,1)
    e377:	34 29                	xor    $0x29,%al
    e379:	3d 72 28 30 2c       	cmp    $0x2c302872,%eax
    e37e:	31 29                	xor    %ebp,(%ecx)
    e380:	3b 31                	cmp    (%ecx),%esi
    e382:	36 3b 30             	cmp    %ss:(%eax),%esi
    e385:	3b 00                	cmp    (%eax),%eax
    e387:	76 6f                	jbe    e3f8 <___crt_xc_end__+0x13f8>
    e389:	69 64 3a 74 28 30 2c 	imul   $0x322c3028,0x74(%edx,%edi,1),%esp
    e390:	32 
    e391:	35 29 3d 28 30       	xor    $0x30283d29,%eax
    e396:	2c 32                	sub    $0x32,%al
    e398:	35 29 00 43 3a       	xor    $0x3a430029,%eax
    e39d:	2f                   	das    
    e39e:	55                   	push   %ebp
    e39f:	73 65                	jae    e406 <___crt_xc_end__+0x1406>
    e3a1:	72 73                	jb     e416 <___crt_xc_end__+0x1416>
    e3a3:	2f                   	das    
    e3a4:	b4 fa                	mov    $0xfa,%ah
    e3a6:	b7 b2                	mov    $0xb2,%bh
    e3a8:	2f                   	das    
    e3a9:	44                   	inc    %esp
    e3aa:	6f                   	outsl  %ds:(%esi),(%dx)
    e3ab:	63 75 6d             	arpl   %si,0x6d(%ebp)
    e3ae:	65 6e                	outsb  %gs:(%esi),(%dx)
    e3b0:	74 73                	je     e425 <___crt_xc_end__+0x1425>
    e3b2:	2f                   	das    
    e3b3:	b4 fa                	mov    $0xfa,%ah
    e3b5:	c2 eb 2f             	ret    $0x2feb
    e3b8:	73 79                	jae    e433 <___crt_xc_end__+0x1433>
    e3ba:	73 74                	jae    e430 <___crt_xc_end__+0x1430>
    e3bc:	65 6d                	gs insl (%dx),%es:(%edi)
    e3be:	2f                   	das    
    e3bf:	6c                   	insb   (%dx),%es:(%edi)
    e3c0:	69 6e 64 6f 72 78 2f 	imul   $0x2f78726f,0x64(%esi),%ebp
    e3c7:	69 6e 63 6c 75 64 65 	imul   $0x6564756c,0x63(%esi),%ebp
    e3ce:	2f                   	das    
    e3cf:	65 6c                	gs insb (%dx),%es:(%edi)
    e3d1:	66 33 32             	xor    (%edx),%si
    e3d4:	2e 68 00 69 6e 74    	cs push $0x746e6900
    e3da:	33 32                	xor    (%edx),%esi
    e3dc:	5f                   	pop    %edi
    e3dd:	74 3a                	je     e419 <___crt_xc_end__+0x1419>
    e3df:	74 28                	je     e409 <___crt_xc_end__+0x1409>
    e3e1:	31 2c 31             	xor    %ebp,(%ecx,%esi,1)
    e3e4:	29 3d 28 30 2c 31    	sub    %edi,0x312c3028
    e3ea:	29 00                	sub    %eax,(%eax)
    e3ec:	69 6e 74 36 34 5f 74 	imul   $0x745f3436,0x74(%esi),%ebp
    e3f3:	3a 74 28 31          	cmp    0x31(%eax,%ebp,1),%dh
    e3f7:	2c 32                	sub    $0x32,%al
    e3f9:	29 3d 28 30 2c 38    	sub    %edi,0x382c3028
    e3ff:	29 00                	sub    %eax,(%eax)
    e401:	75 69                	jne    e46c <___crt_xc_end__+0x146c>
    e403:	6e                   	outsb  %ds:(%esi),(%dx)
    e404:	74 31                	je     e437 <___crt_xc_end__+0x1437>
    e406:	36 5f                	ss pop %edi
    e408:	74 3a                	je     e444 <___crt_xc_end__+0x1444>
    e40a:	74 28                	je     e434 <___crt_xc_end__+0x1434>
    e40c:	31 2c 33             	xor    %ebp,(%ebx,%esi,1)
    e40f:	29 3d 28 30 2c 31    	sub    %edi,0x312c3028
    e415:	31 29                	xor    %ebp,(%ecx)
    e417:	00 75 69             	add    %dh,0x69(%ebp)
    e41a:	6e                   	outsb  %ds:(%esi),(%dx)
    e41b:	74 33                	je     e450 <___crt_xc_end__+0x1450>
    e41d:	32 5f 74             	xor    0x74(%edi),%bl
    e420:	3a 74 28 31          	cmp    0x31(%eax,%ebp,1),%dh
    e424:	2c 34                	sub    $0x34,%al
    e426:	29 3d 28 30 2c 34    	sub    %edi,0x342c3028
    e42c:	29 00                	sub    %eax,(%eax)
    e42e:	75 69                	jne    e499 <___crt_xc_end__+0x1499>
    e430:	6e                   	outsb  %ds:(%esi),(%dx)
    e431:	74 36                	je     e469 <___crt_xc_end__+0x1469>
    e433:	34 5f                	xor    $0x5f,%al
    e435:	74 3a                	je     e471 <___crt_xc_end__+0x1471>
    e437:	74 28                	je     e461 <___crt_xc_end__+0x1461>
    e439:	31 2c 35 29 3d 28 30 	xor    %ebp,0x30283d29(,%esi,1)
    e440:	2c 39                	sub    $0x39,%al
    e442:	29 00                	sub    %eax,(%eax)
    e444:	45                   	inc    %ebp
    e445:	6c                   	insb   (%dx),%es:(%edi)
    e446:	66 33 32             	xor    (%edx),%si
    e449:	5f                   	pop    %edi
    e44a:	48                   	dec    %eax
    e44b:	61                   	popa   
    e44c:	6c                   	insb   (%dx),%es:(%edi)
    e44d:	66 3a 74 28 31       	data16 cmp 0x31(%eax,%ebp,1),%dh
    e452:	2c 36                	sub    $0x36,%al
    e454:	29 3d 28 31 2c 33    	sub    %edi,0x332c3128
    e45a:	29 00                	sub    %eax,(%eax)
    e45c:	45                   	inc    %ebp
    e45d:	6c                   	insb   (%dx),%es:(%edi)
    e45e:	66 36 34 5f          	data16 ss xor $0x5f,%al
    e462:	48                   	dec    %eax
    e463:	61                   	popa   
    e464:	6c                   	insb   (%dx),%es:(%edi)
    e465:	66 3a 74 28 31       	data16 cmp 0x31(%eax,%ebp,1),%dh
    e46a:	2c 37                	sub    $0x37,%al
    e46c:	29 3d 28 31 2c 33    	sub    %edi,0x332c3128
    e472:	29 00                	sub    %eax,(%eax)
    e474:	45                   	inc    %ebp
    e475:	6c                   	insb   (%dx),%es:(%edi)
    e476:	66 33 32             	xor    (%edx),%si
    e479:	5f                   	pop    %edi
    e47a:	57                   	push   %edi
    e47b:	6f                   	outsl  %ds:(%esi),(%dx)
    e47c:	72 64                	jb     e4e2 <___crt_xc_end__+0x14e2>
    e47e:	3a 74 28 31          	cmp    0x31(%eax,%ebp,1),%dh
    e482:	2c 38                	sub    $0x38,%al
    e484:	29 3d 28 31 2c 34    	sub    %edi,0x342c3128
    e48a:	29 00                	sub    %eax,(%eax)
    e48c:	45                   	inc    %ebp
    e48d:	6c                   	insb   (%dx),%es:(%edi)
    e48e:	66 33 32             	xor    (%edx),%si
    e491:	5f                   	pop    %edi
    e492:	53                   	push   %ebx
    e493:	77 6f                	ja     e504 <___crt_xc_end__+0x1504>
    e495:	72 64                	jb     e4fb <___crt_xc_end__+0x14fb>
    e497:	3a 74 28 31          	cmp    0x31(%eax,%ebp,1),%dh
    e49b:	2c 39                	sub    $0x39,%al
    e49d:	29 3d 28 31 2c 31    	sub    %edi,0x312c3128
    e4a3:	29 00                	sub    %eax,(%eax)
    e4a5:	45                   	inc    %ebp
    e4a6:	6c                   	insb   (%dx),%es:(%edi)
    e4a7:	66 36 34 5f          	data16 ss xor $0x5f,%al
    e4ab:	57                   	push   %edi
    e4ac:	6f                   	outsl  %ds:(%esi),(%dx)
    e4ad:	72 64                	jb     e513 <___crt_xc_end__+0x1513>
    e4af:	3a 74 28 31          	cmp    0x31(%eax,%ebp,1),%dh
    e4b3:	2c 31                	sub    $0x31,%al
    e4b5:	30 29                	xor    %ch,(%ecx)
    e4b7:	3d 28 31 2c 34       	cmp    $0x342c3128,%eax
    e4bc:	29 00                	sub    %eax,(%eax)
    e4be:	45                   	inc    %ebp
    e4bf:	6c                   	insb   (%dx),%es:(%edi)
    e4c0:	66 36 34 5f          	data16 ss xor $0x5f,%al
    e4c4:	53                   	push   %ebx
    e4c5:	77 6f                	ja     e536 <___crt_xc_end__+0x1536>
    e4c7:	72 64                	jb     e52d <___crt_xc_end__+0x152d>
    e4c9:	3a 74 28 31          	cmp    0x31(%eax,%ebp,1),%dh
    e4cd:	2c 31                	sub    $0x31,%al
    e4cf:	31 29                	xor    %ebp,(%ecx)
    e4d1:	3d 28 31 2c 31       	cmp    $0x312c3128,%eax
    e4d6:	29 00                	sub    %eax,(%eax)
    e4d8:	45                   	inc    %ebp
    e4d9:	6c                   	insb   (%dx),%es:(%edi)
    e4da:	66 33 32             	xor    (%edx),%si
    e4dd:	5f                   	pop    %edi
    e4de:	58                   	pop    %eax
    e4df:	77 6f                	ja     e550 <___crt_xc_end__+0x1550>
    e4e1:	72 64                	jb     e547 <___crt_xc_end__+0x1547>
    e4e3:	3a 74 28 31          	cmp    0x31(%eax,%ebp,1),%dh
    e4e7:	2c 31                	sub    $0x31,%al
    e4e9:	32 29                	xor    (%ecx),%ch
    e4eb:	3d 28 31 2c 35       	cmp    $0x352c3128,%eax
    e4f0:	29 00                	sub    %eax,(%eax)
    e4f2:	45                   	inc    %ebp
    e4f3:	6c                   	insb   (%dx),%es:(%edi)
    e4f4:	66 33 32             	xor    (%edx),%si
    e4f7:	5f                   	pop    %edi
    e4f8:	53                   	push   %ebx
    e4f9:	78 77                	js     e572 <___crt_xc_end__+0x1572>
    e4fb:	6f                   	outsl  %ds:(%esi),(%dx)
    e4fc:	72 64                	jb     e562 <___crt_xc_end__+0x1562>
    e4fe:	3a 74 28 31          	cmp    0x31(%eax,%ebp,1),%dh
    e502:	2c 31                	sub    $0x31,%al
    e504:	33 29                	xor    (%ecx),%ebp
    e506:	3d 28 31 2c 32       	cmp    $0x322c3128,%eax
    e50b:	29 00                	sub    %eax,(%eax)
    e50d:	45                   	inc    %ebp
    e50e:	6c                   	insb   (%dx),%es:(%edi)
    e50f:	66 36 34 5f          	data16 ss xor $0x5f,%al
    e513:	58                   	pop    %eax
    e514:	77 6f                	ja     e585 <___crt_xc_end__+0x1585>
    e516:	72 64                	jb     e57c <___crt_xc_end__+0x157c>
    e518:	3a 74 28 31          	cmp    0x31(%eax,%ebp,1),%dh
    e51c:	2c 31                	sub    $0x31,%al
    e51e:	34 29                	xor    $0x29,%al
    e520:	3d 28 31 2c 35       	cmp    $0x352c3128,%eax
    e525:	29 00                	sub    %eax,(%eax)
    e527:	45                   	inc    %ebp
    e528:	6c                   	insb   (%dx),%es:(%edi)
    e529:	66 36 34 5f          	data16 ss xor $0x5f,%al
    e52d:	53                   	push   %ebx
    e52e:	78 77                	js     e5a7 <___crt_xc_end__+0x15a7>
    e530:	6f                   	outsl  %ds:(%esi),(%dx)
    e531:	72 64                	jb     e597 <___crt_xc_end__+0x1597>
    e533:	3a 74 28 31          	cmp    0x31(%eax,%ebp,1),%dh
    e537:	2c 31                	sub    $0x31,%al
    e539:	35 29 3d 28 31       	xor    $0x31283d29,%eax
    e53e:	2c 32                	sub    $0x32,%al
    e540:	29 00                	sub    %eax,(%eax)
    e542:	45                   	inc    %ebp
    e543:	6c                   	insb   (%dx),%es:(%edi)
    e544:	66 33 32             	xor    (%edx),%si
    e547:	5f                   	pop    %edi
    e548:	41                   	inc    %ecx
    e549:	64 64 72 3a          	fs fs jb e587 <___crt_xc_end__+0x1587>
    e54d:	74 28                	je     e577 <___crt_xc_end__+0x1577>
    e54f:	31 2c 31             	xor    %ebp,(%ecx,%esi,1)
    e552:	36 29 3d 28 31 2c 34 	sub    %edi,%ss:0x342c3128
    e559:	29 00                	sub    %eax,(%eax)
    e55b:	45                   	inc    %ebp
    e55c:	6c                   	insb   (%dx),%es:(%edi)
    e55d:	66 36 34 5f          	data16 ss xor $0x5f,%al
    e561:	41                   	inc    %ecx
    e562:	64 64 72 3a          	fs fs jb e5a0 <___crt_xc_end__+0x15a0>
    e566:	74 28                	je     e590 <___crt_xc_end__+0x1590>
    e568:	31 2c 31             	xor    %ebp,(%ecx,%esi,1)
    e56b:	37                   	aaa    
    e56c:	29 3d 28 31 2c 35    	sub    %edi,0x352c3128
    e572:	29 00                	sub    %eax,(%eax)
    e574:	45                   	inc    %ebp
    e575:	6c                   	insb   (%dx),%es:(%edi)
    e576:	66 33 32             	xor    (%edx),%si
    e579:	5f                   	pop    %edi
    e57a:	4f                   	dec    %edi
    e57b:	66 66 3a 74 28 31    	data16 data16 cmp 0x31(%eax,%ebp,1),%dh
    e581:	2c 31                	sub    $0x31,%al
    e583:	38 29                	cmp    %ch,(%ecx)
    e585:	3d 28 31 2c 34       	cmp    $0x342c3128,%eax
    e58a:	29 00                	sub    %eax,(%eax)
    e58c:	45                   	inc    %ebp
    e58d:	6c                   	insb   (%dx),%es:(%edi)
    e58e:	66 36 34 5f          	data16 ss xor $0x5f,%al
    e592:	4f                   	dec    %edi
    e593:	66 66 3a 74 28 31    	data16 data16 cmp 0x31(%eax,%ebp,1),%dh
    e599:	2c 31                	sub    $0x31,%al
    e59b:	39 29                	cmp    %ebp,(%ecx)
    e59d:	3d 28 31 2c 35       	cmp    $0x352c3128,%eax
    e5a2:	29 00                	sub    %eax,(%eax)
    e5a4:	45                   	inc    %ebp
    e5a5:	6c                   	insb   (%dx),%es:(%edi)
    e5a6:	66 33 32             	xor    (%edx),%si
    e5a9:	5f                   	pop    %edi
    e5aa:	53                   	push   %ebx
    e5ab:	65 63 74 69 6f       	arpl   %si,%gs:0x6f(%ecx,%ebp,2)
    e5b0:	6e                   	outsb  %ds:(%esi),(%dx)
    e5b1:	3a 74 28 31          	cmp    0x31(%eax,%ebp,1),%dh
    e5b5:	2c 32                	sub    $0x32,%al
    e5b7:	30 29                	xor    %ch,(%ecx)
    e5b9:	3d 28 31 2c 33       	cmp    $0x332c3128,%eax
    e5be:	29 00                	sub    %eax,(%eax)
    e5c0:	45                   	inc    %ebp
    e5c1:	6c                   	insb   (%dx),%es:(%edi)
    e5c2:	66 36 34 5f          	data16 ss xor $0x5f,%al
    e5c6:	53                   	push   %ebx
    e5c7:	65 63 74 69 6f       	arpl   %si,%gs:0x6f(%ecx,%ebp,2)
    e5cc:	6e                   	outsb  %ds:(%esi),(%dx)
    e5cd:	3a 74 28 31          	cmp    0x31(%eax,%ebp,1),%dh
    e5d1:	2c 32                	sub    $0x32,%al
    e5d3:	31 29                	xor    %ebp,(%ecx)
    e5d5:	3d 28 31 2c 33       	cmp    $0x332c3128,%eax
    e5da:	29 00                	sub    %eax,(%eax)
    e5dc:	45                   	inc    %ebp
    e5dd:	6c                   	insb   (%dx),%es:(%edi)
    e5de:	66 33 32             	xor    (%edx),%si
    e5e1:	5f                   	pop    %edi
    e5e2:	56                   	push   %esi
    e5e3:	65 72 73             	gs jb  e659 <___crt_xc_end__+0x1659>
    e5e6:	79 6d                	jns    e655 <___crt_xc_end__+0x1655>
    e5e8:	3a 74 28 31          	cmp    0x31(%eax,%ebp,1),%dh
    e5ec:	2c 32                	sub    $0x32,%al
    e5ee:	32 29                	xor    (%ecx),%ch
    e5f0:	3d 28 31 2c 36       	cmp    $0x362c3128,%eax
    e5f5:	29 00                	sub    %eax,(%eax)
    e5f7:	45                   	inc    %ebp
    e5f8:	6c                   	insb   (%dx),%es:(%edi)
    e5f9:	66 36 34 5f          	data16 ss xor $0x5f,%al
    e5fd:	56                   	push   %esi
    e5fe:	65 72 73             	gs jb  e674 <___crt_xc_end__+0x1674>
    e601:	79 6d                	jns    e670 <___crt_xc_end__+0x1670>
    e603:	3a 74 28 31          	cmp    0x31(%eax,%ebp,1),%dh
    e607:	2c 32                	sub    $0x32,%al
    e609:	33 29                	xor    (%ecx),%ebp
    e60b:	3d 28 31 2c 37       	cmp    $0x372c3128,%eax
    e610:	29 00                	sub    %eax,(%eax)
    e612:	45                   	inc    %ebp
    e613:	6c                   	insb   (%dx),%es:(%edi)
    e614:	66 33 32             	xor    (%edx),%si
    e617:	5f                   	pop    %edi
    e618:	45                   	inc    %ebp
    e619:	68 64 72 3a 74       	push   $0x743a7264
    e61e:	28 31                	sub    %dh,(%ecx)
    e620:	2c 32                	sub    $0x32,%al
    e622:	34 29                	xor    $0x29,%al
    e624:	3d 28 31 2c 32       	cmp    $0x322c3128,%eax
    e629:	35 29 3d 73 35       	xor    $0x35733d29,%eax
    e62e:	32 65 5f             	xor    0x5f(%ebp),%ah
    e631:	6d                   	insl   (%dx),%es:(%edi)
    e632:	61                   	popa   
    e633:	67 69 63 3a 28 31 2c 	imul   $0x342c3128,0x3a(%bp,%di),%esp
    e63a:	34 
    e63b:	29 2c 30             	sub    %ebp,(%eax,%esi,1)
    e63e:	2c 33                	sub    $0x33,%al
    e640:	32 3b                	xor    (%ebx),%bh
    e642:	65 5f                	gs pop %edi
    e644:	69 64 65 6e 74 3a 28 	imul   $0x31283a74,0x6e(%ebp,%eiz,2),%esp
    e64b:	31 
    e64c:	2c 32                	sub    $0x32,%al
    e64e:	36 29 3d 61 72 28 31 	sub    %edi,%ss:0x31287261
    e655:	2c 32                	sub    $0x32,%al
    e657:	37                   	aaa    
    e658:	29 3d 72 28 31 2c    	sub    %edi,0x2c312872
    e65e:	32 37                	xor    (%edi),%dh
    e660:	29 3b                	sub    %edi,(%ebx)
    e662:	30 3b                	xor    %bh,(%ebx)
    e664:	34 32                	xor    $0x32,%al
    e666:	39 34 39             	cmp    %esi,(%ecx,%edi,1)
    e669:	36 37                	ss aaa 
    e66b:	32 39                	xor    (%ecx),%bh
    e66d:	35 3b 3b 30 3b       	xor    $0x3b303b3b,%eax
    e672:	31 31                	xor    %esi,(%ecx)
    e674:	3b 28                	cmp    (%eax),%ebp
    e676:	30 2c 31             	xor    %ch,(%ecx,%esi,1)
    e679:	33 29                	xor    (%ecx),%ebp
    e67b:	2c 33                	sub    $0x33,%al
    e67d:	32 2c 39             	xor    (%ecx,%edi,1),%ch
    e680:	36 3b 65 5f          	cmp    %ss:0x5f(%ebp),%esp
    e684:	74 79                	je     e6ff <___crt_xc_end__+0x16ff>
    e686:	70 65                	jo     e6ed <___crt_xc_end__+0x16ed>
    e688:	3a 28                	cmp    (%eax),%ch
    e68a:	31 2c 36             	xor    %ebp,(%esi,%esi,1)
    e68d:	29 2c 31             	sub    %ebp,(%ecx,%esi,1)
    e690:	32 38                	xor    (%eax),%bh
    e692:	2c 31                	sub    $0x31,%al
    e694:	36 3b 65 5f          	cmp    %ss:0x5f(%ebp),%esp
    e698:	6d                   	insl   (%dx),%es:(%edi)
    e699:	61                   	popa   
    e69a:	63 68 69             	arpl   %bp,0x69(%eax)
    e69d:	6e                   	outsb  %ds:(%esi),(%dx)
    e69e:	65 3a 28             	cmp    %gs:(%eax),%ch
    e6a1:	31 2c 36             	xor    %ebp,(%esi,%esi,1)
    e6a4:	29 2c 31             	sub    %ebp,(%ecx,%esi,1)
    e6a7:	34 34                	xor    $0x34,%al
    e6a9:	2c 31                	sub    $0x31,%al
    e6ab:	36 3b 65 5f          	cmp    %ss:0x5f(%ebp),%esp
    e6af:	76 65                	jbe    e716 <___crt_xc_end__+0x1716>
    e6b1:	72 73                	jb     e726 <___crt_xc_end__+0x1726>
    e6b3:	69 6f 6e 3a 28 31 2c 	imul   $0x2c31283a,0x6e(%edi),%ebp
    e6ba:	38 29                	cmp    %ch,(%ecx)
    e6bc:	2c 31                	sub    $0x31,%al
    e6be:	36 30 2c 33          	xor    %ch,%ss:(%ebx,%esi,1)
    e6c2:	32 3b                	xor    (%ebx),%bh
    e6c4:	65 5f                	gs pop %edi
    e6c6:	65 6e                	outsb  %gs:(%esi),(%dx)
    e6c8:	74 72                	je     e73c <___crt_xc_end__+0x173c>
    e6ca:	79 3a                	jns    e706 <___crt_xc_end__+0x1706>
    e6cc:	28 31                	sub    %dh,(%ecx)
    e6ce:	2c 31                	sub    $0x31,%al
    e6d0:	36 29 2c 31          	sub    %ebp,%ss:(%ecx,%esi,1)
    e6d4:	39 32                	cmp    %esi,(%edx)
    e6d6:	2c 33                	sub    $0x33,%al
    e6d8:	32 3b                	xor    (%ebx),%bh
    e6da:	65 5f                	gs pop %edi
    e6dc:	70 68                	jo     e746 <___crt_xc_end__+0x1746>
    e6de:	6f                   	outsl  %ds:(%esi),(%dx)
    e6df:	66 66 3a 28          	data16 data16 cmp (%eax),%ch
    e6e3:	31 2c 31             	xor    %ebp,(%ecx,%esi,1)
    e6e6:	38 29                	cmp    %ch,(%ecx)
    e6e8:	2c 32                	sub    $0x32,%al
    e6ea:	32 34 2c             	xor    (%esp,%ebp,1),%dh
    e6ed:	33 32                	xor    (%edx),%esi
    e6ef:	3b 65 5f             	cmp    0x5f(%ebp),%esp
    e6f2:	73 68                	jae    e75c <___crt_xc_end__+0x175c>
    e6f4:	6f                   	outsl  %ds:(%esi),(%dx)
    e6f5:	66 66 3a 28          	data16 data16 cmp (%eax),%ch
    e6f9:	31 2c 31             	xor    %ebp,(%ecx,%esi,1)
    e6fc:	38 29                	cmp    %ch,(%ecx)
    e6fe:	2c 32                	sub    $0x32,%al
    e700:	35 36 2c 33 32       	xor    $0x32332c36,%eax
    e705:	3b 65 5f             	cmp    0x5f(%ebp),%esp
    e708:	66 6c                	data16 insb (%dx),%es:(%edi)
    e70a:	61                   	popa   
    e70b:	67 73 3a             	addr16 jae e748 <___crt_xc_end__+0x1748>
    e70e:	28 31                	sub    %dh,(%ecx)
    e710:	2c 38                	sub    $0x38,%al
    e712:	29 2c 32             	sub    %ebp,(%edx,%esi,1)
    e715:	38 38                	cmp    %bh,(%eax)
    e717:	2c 33                	sub    $0x33,%al
    e719:	32 3b                	xor    (%ebx),%bh
    e71b:	65 5f                	gs pop %edi
    e71d:	65 68 73 69 7a 65    	gs push $0x657a6973
    e723:	3a 28                	cmp    (%eax),%ch
    e725:	31 2c 36             	xor    %ebp,(%esi,%esi,1)
    e728:	29 2c 33             	sub    %ebp,(%ebx,%esi,1)
    e72b:	32 30                	xor    (%eax),%dh
    e72d:	2c 31                	sub    $0x31,%al
    e72f:	36 3b 65 5f          	cmp    %ss:0x5f(%ebp),%esp
    e733:	70 68                	jo     e79d <___crt_xc_end__+0x179d>
    e735:	65 6e                	outsb  %gs:(%esi),(%dx)
    e737:	74 73                	je     e7ac <___crt_xc_end__+0x17ac>
    e739:	69 7a 65 3a 28 31 2c 	imul   $0x2c31283a,0x65(%edx),%edi
    e740:	36 29 2c 33          	sub    %ebp,%ss:(%ebx,%esi,1)
    e744:	33 36                	xor    (%esi),%esi
    e746:	2c 31                	sub    $0x31,%al
    e748:	36 3b 65 5f          	cmp    %ss:0x5f(%ebp),%esp
    e74c:	70 68                	jo     e7b6 <___crt_xc_end__+0x17b6>
    e74e:	6e                   	outsb  %ds:(%esi),(%dx)
    e74f:	75 6d                	jne    e7be <___crt_xc_end__+0x17be>
    e751:	3a 28                	cmp    (%eax),%ch
    e753:	31 2c 36             	xor    %ebp,(%esi,%esi,1)
    e756:	29 2c 33             	sub    %ebp,(%ebx,%esi,1)
    e759:	35 32 2c 31 36       	xor    $0x36312c32,%eax
    e75e:	3b 65 5f             	cmp    0x5f(%ebp),%esp
    e761:	73 68                	jae    e7cb <___crt_xc_end__+0x17cb>
    e763:	65 6e                	outsb  %gs:(%esi),(%dx)
    e765:	74 73                	je     e7da <___crt_xc_end__+0x17da>
    e767:	69 7a 65 3a 28 31 2c 	imul   $0x2c31283a,0x65(%edx),%edi
    e76e:	36 29 2c 33          	sub    %ebp,%ss:(%ebx,%esi,1)
    e772:	36 38 2c 31          	cmp    %ch,%ss:(%ecx,%esi,1)
    e776:	36 3b 65 5f          	cmp    %ss:0x5f(%ebp),%esp
    e77a:	73 68                	jae    e7e4 <___crt_xc_end__+0x17e4>
    e77c:	6e                   	outsb  %ds:(%esi),(%dx)
    e77d:	75 6d                	jne    e7ec <___crt_xc_end__+0x17ec>
    e77f:	3a 28                	cmp    (%eax),%ch
    e781:	31 2c 36             	xor    %ebp,(%esi,%esi,1)
    e784:	29 2c 33             	sub    %ebp,(%ebx,%esi,1)
    e787:	38 34 2c             	cmp    %dh,(%esp,%ebp,1)
    e78a:	31 36                	xor    %esi,(%esi)
    e78c:	3b 65 5f             	cmp    0x5f(%ebp),%esp
    e78f:	73 68                	jae    e7f9 <___crt_xc_end__+0x17f9>
    e791:	73 74                	jae    e807 <___crt_xc_end__+0x1807>
    e793:	72 6e                	jb     e803 <___crt_xc_end__+0x1803>
    e795:	64 78 3a             	fs js  e7d2 <___crt_xc_end__+0x17d2>
    e798:	28 31                	sub    %dh,(%ecx)
    e79a:	2c 36                	sub    $0x36,%al
    e79c:	29 2c 34             	sub    %ebp,(%esp,%esi,1)
    e79f:	30 30                	xor    %dh,(%eax)
    e7a1:	2c 31                	sub    $0x31,%al
    e7a3:	36 3b 3b             	cmp    %ss:(%ebx),%edi
    e7a6:	00 45 6c             	add    %al,0x6c(%ebp)
    e7a9:	66 33 32             	xor    (%edx),%si
    e7ac:	5f                   	pop    %edi
    e7ad:	50                   	push   %eax
    e7ae:	68 64 72 3a 74       	push   $0x743a7264
    e7b3:	28 31                	sub    %dh,(%ecx)
    e7b5:	2c 32                	sub    $0x32,%al
    e7b7:	38 29                	cmp    %ch,(%ecx)
    e7b9:	3d 28 31 2c 32       	cmp    $0x322c3128,%eax
    e7be:	39 29                	cmp    %ebp,(%ecx)
    e7c0:	3d 73 33 32 70       	cmp    $0x70323373,%eax
    e7c5:	5f                   	pop    %edi
    e7c6:	74 79                	je     e841 <___crt_xc_end__+0x1841>
    e7c8:	70 65                	jo     e82f <___crt_xc_end__+0x182f>
    e7ca:	3a 28                	cmp    (%eax),%ch
    e7cc:	31 2c 38             	xor    %ebp,(%eax,%edi,1)
    e7cf:	29 2c 30             	sub    %ebp,(%eax,%esi,1)
    e7d2:	2c 33                	sub    $0x33,%al
    e7d4:	32 3b                	xor    (%ebx),%bh
    e7d6:	70 5f                	jo     e837 <___crt_xc_end__+0x1837>
    e7d8:	6f                   	outsl  %ds:(%esi),(%dx)
    e7d9:	66 66 73 65          	data16 data16 jae e842 <___crt_xc_end__+0x1842>
    e7dd:	74 3a                	je     e819 <___crt_xc_end__+0x1819>
    e7df:	28 31                	sub    %dh,(%ecx)
    e7e1:	2c 31                	sub    $0x31,%al
    e7e3:	38 29                	cmp    %ch,(%ecx)
    e7e5:	2c 33                	sub    $0x33,%al
    e7e7:	32 2c 33             	xor    (%ebx,%esi,1),%ch
    e7ea:	32 3b                	xor    (%ebx),%bh
    e7ec:	70 5f                	jo     e84d <___crt_xc_end__+0x184d>
    e7ee:	76 61                	jbe    e851 <___crt_xc_end__+0x1851>
    e7f0:	64 64 72 3a          	fs fs jb e82e <___crt_xc_end__+0x182e>
    e7f4:	28 31                	sub    %dh,(%ecx)
    e7f6:	2c 31                	sub    $0x31,%al
    e7f8:	36 29 2c 36          	sub    %ebp,%ss:(%esi,%esi,1)
    e7fc:	34 2c                	xor    $0x2c,%al
    e7fe:	33 32                	xor    (%edx),%esi
    e800:	3b 70 5f             	cmp    0x5f(%eax),%esi
    e803:	70 61                	jo     e866 <___crt_xc_end__+0x1866>
    e805:	64 64 72 3a          	fs fs jb e843 <___crt_xc_end__+0x1843>
    e809:	28 31                	sub    %dh,(%ecx)
    e80b:	2c 31                	sub    $0x31,%al
    e80d:	36 29 2c 39          	sub    %ebp,%ss:(%ecx,%edi,1)
    e811:	36 2c 33             	ss sub $0x33,%al
    e814:	32 3b                	xor    (%ebx),%bh
    e816:	70 5f                	jo     e877 <___crt_xc_end__+0x1877>
    e818:	66 69 6c 65 73 7a 3a 	imul   $0x3a7a,0x73(%ebp,%eiz,2),%bp
    e81f:	28 31                	sub    %dh,(%ecx)
    e821:	2c 38                	sub    $0x38,%al
    e823:	29 2c 31             	sub    %ebp,(%ecx,%esi,1)
    e826:	32 38                	xor    (%eax),%bh
    e828:	2c 33                	sub    $0x33,%al
    e82a:	32 3b                	xor    (%ebx),%bh
    e82c:	70 5f                	jo     e88d <___crt_xc_end__+0x188d>
    e82e:	6d                   	insl   (%dx),%es:(%edi)
    e82f:	65 6d                	gs insl (%dx),%es:(%edi)
    e831:	73 7a                	jae    e8ad <___crt_xc_end__+0x18ad>
    e833:	3a 28                	cmp    (%eax),%ch
    e835:	31 2c 38             	xor    %ebp,(%eax,%edi,1)
    e838:	29 2c 31             	sub    %ebp,(%ecx,%esi,1)
    e83b:	36 30 2c 33          	xor    %ch,%ss:(%ebx,%esi,1)
    e83f:	32 3b                	xor    (%ebx),%bh
    e841:	70 5f                	jo     e8a2 <___crt_xc_end__+0x18a2>
    e843:	66 6c                	data16 insb (%dx),%es:(%edi)
    e845:	61                   	popa   
    e846:	67 73 3a             	addr16 jae e883 <___crt_xc_end__+0x1883>
    e849:	28 31                	sub    %dh,(%ecx)
    e84b:	2c 38                	sub    $0x38,%al
    e84d:	29 2c 31             	sub    %ebp,(%ecx,%esi,1)
    e850:	39 32                	cmp    %esi,(%edx)
    e852:	2c 33                	sub    $0x33,%al
    e854:	32 3b                	xor    (%ebx),%bh
    e856:	70 5f                	jo     e8b7 <___crt_xc_end__+0x18b7>
    e858:	61                   	popa   
    e859:	6c                   	insb   (%dx),%es:(%edi)
    e85a:	69 67 6e 3a 28 31 2c 	imul   $0x2c31283a,0x6e(%edi),%esp
    e861:	38 29                	cmp    %ch,(%ecx)
    e863:	2c 32                	sub    $0x32,%al
    e865:	32 34 2c             	xor    (%esp,%ebp,1),%dh
    e868:	33 32                	xor    (%edx),%esi
    e86a:	3b 3b                	cmp    (%ebx),%edi
    e86c:	00 45 6c             	add    %al,0x6c(%ebp)
    e86f:	66 33 32             	xor    (%edx),%si
    e872:	5f                   	pop    %edi
    e873:	53                   	push   %ebx
    e874:	68 64 72 3a 74       	push   $0x743a7264
    e879:	28 31                	sub    %dh,(%ecx)
    e87b:	2c 33                	sub    $0x33,%al
    e87d:	30 29                	xor    %ch,(%ecx)
    e87f:	3d 28 31 2c 33       	cmp    $0x332c3128,%eax
    e884:	31 29                	xor    %ebp,(%ecx)
    e886:	3d 73 34 30 73       	cmp    $0x73303473,%eax
    e88b:	68 5f 6e 61 6d       	push   $0x6d616e5f
    e890:	65 3a 28             	cmp    %gs:(%eax),%ch
    e893:	31 2c 38             	xor    %ebp,(%eax,%edi,1)
    e896:	29 2c 30             	sub    %ebp,(%eax,%esi,1)
    e899:	2c 33                	sub    $0x33,%al
    e89b:	32 3b                	xor    (%ebx),%bh
    e89d:	73 68                	jae    e907 <___crt_xc_end__+0x1907>
    e89f:	5f                   	pop    %edi
    e8a0:	74 79                	je     e91b <___crt_xc_end__+0x191b>
    e8a2:	70 65                	jo     e909 <___crt_xc_end__+0x1909>
    e8a4:	3a 28                	cmp    (%eax),%ch
    e8a6:	31 2c 38             	xor    %ebp,(%eax,%edi,1)
    e8a9:	29 2c 33             	sub    %ebp,(%ebx,%esi,1)
    e8ac:	32 2c 33             	xor    (%ebx,%esi,1),%ch
    e8af:	32 3b                	xor    (%ebx),%bh
    e8b1:	73 68                	jae    e91b <___crt_xc_end__+0x191b>
    e8b3:	5f                   	pop    %edi
    e8b4:	66 6c                	data16 insb (%dx),%es:(%edi)
    e8b6:	61                   	popa   
    e8b7:	67 73 3a             	addr16 jae e8f4 <___crt_xc_end__+0x18f4>
    e8ba:	28 31                	sub    %dh,(%ecx)
    e8bc:	2c 38                	sub    $0x38,%al
    e8be:	29 2c 36             	sub    %ebp,(%esi,%esi,1)
    e8c1:	34 2c                	xor    $0x2c,%al
    e8c3:	33 32                	xor    (%edx),%esi
    e8c5:	3b 73 68             	cmp    0x68(%ebx),%esi
    e8c8:	5f                   	pop    %edi
    e8c9:	61                   	popa   
    e8ca:	64 64 72 3a          	fs fs jb e908 <___crt_xc_end__+0x1908>
    e8ce:	28 31                	sub    %dh,(%ecx)
    e8d0:	2c 31                	sub    $0x31,%al
    e8d2:	36 29 2c 39          	sub    %ebp,%ss:(%ecx,%edi,1)
    e8d6:	36 2c 33             	ss sub $0x33,%al
    e8d9:	32 3b                	xor    (%ebx),%bh
    e8db:	73 68                	jae    e945 <___crt_xc_end__+0x1945>
    e8dd:	5f                   	pop    %edi
    e8de:	6f                   	outsl  %ds:(%esi),(%dx)
    e8df:	66 66 73 65          	data16 data16 jae e948 <___crt_xc_end__+0x1948>
    e8e3:	74 3a                	je     e91f <___crt_xc_end__+0x191f>
    e8e5:	28 31                	sub    %dh,(%ecx)
    e8e7:	2c 31                	sub    $0x31,%al
    e8e9:	38 29                	cmp    %ch,(%ecx)
    e8eb:	2c 31                	sub    $0x31,%al
    e8ed:	32 38                	xor    (%eax),%bh
    e8ef:	2c 33                	sub    $0x33,%al
    e8f1:	32 3b                	xor    (%ebx),%bh
    e8f3:	73 68                	jae    e95d <___crt_xc_end__+0x195d>
    e8f5:	5f                   	pop    %edi
    e8f6:	73 69                	jae    e961 <___crt_xc_end__+0x1961>
    e8f8:	7a 65                	jp     e95f <___crt_xc_end__+0x195f>
    e8fa:	3a 28                	cmp    (%eax),%ch
    e8fc:	31 2c 38             	xor    %ebp,(%eax,%edi,1)
    e8ff:	29 2c 31             	sub    %ebp,(%ecx,%esi,1)
    e902:	36 30 2c 33          	xor    %ch,%ss:(%ebx,%esi,1)
    e906:	32 3b                	xor    (%ebx),%bh
    e908:	73 68                	jae    e972 <___crt_xc_end__+0x1972>
    e90a:	5f                   	pop    %edi
    e90b:	6c                   	insb   (%dx),%es:(%edi)
    e90c:	69 6e 6b 3a 28 31 2c 	imul   $0x2c31283a,0x6b(%esi),%ebp
    e913:	38 29                	cmp    %ch,(%ecx)
    e915:	2c 31                	sub    $0x31,%al
    e917:	39 32                	cmp    %esi,(%edx)
    e919:	2c 33                	sub    $0x33,%al
    e91b:	32 3b                	xor    (%ebx),%bh
    e91d:	73 68                	jae    e987 <___crt_xc_end__+0x1987>
    e91f:	5f                   	pop    %edi
    e920:	69 6e 66 6f 3a 28 31 	imul   $0x31283a6f,0x66(%esi),%ebp
    e927:	2c 38                	sub    $0x38,%al
    e929:	29 2c 32             	sub    %ebp,(%edx,%esi,1)
    e92c:	32 34 2c             	xor    (%esp,%ebp,1),%dh
    e92f:	33 32                	xor    (%edx),%esi
    e931:	3b 73 68             	cmp    0x68(%ebx),%esi
    e934:	5f                   	pop    %edi
    e935:	61                   	popa   
    e936:	64 64 72 61          	fs fs jb e99b <___crt_xc_end__+0x199b>
    e93a:	6c                   	insb   (%dx),%es:(%edi)
    e93b:	69 67 6e 3a 28 31 2c 	imul   $0x2c31283a,0x6e(%edi),%esp
    e942:	38 29                	cmp    %ch,(%ecx)
    e944:	2c 32                	sub    $0x32,%al
    e946:	35 36 2c 33 32       	xor    $0x32332c36,%eax
    e94b:	3b 73 68             	cmp    0x68(%ebx),%esi
    e94e:	5f                   	pop    %edi
    e94f:	65 6e                	outsb  %gs:(%esi),(%dx)
    e951:	74 73                	je     e9c6 <___crt_xc_end__+0x19c6>
    e953:	69 7a 65 3a 28 31 2c 	imul   $0x2c31283a,0x65(%edx),%edi
    e95a:	38 29                	cmp    %ch,(%ecx)
    e95c:	2c 32                	sub    $0x32,%al
    e95e:	38 38                	cmp    %bh,(%eax)
    e960:	2c 33                	sub    $0x33,%al
    e962:	32 3b                	xor    (%ebx),%bh
    e964:	3b 00                	cmp    (%eax),%eax
    e966:	45                   	inc    %ebp
    e967:	6c                   	insb   (%dx),%es:(%edi)
    e968:	66 36 34 5f          	data16 ss xor $0x5f,%al
    e96c:	45                   	inc    %ebp
    e96d:	68 64 72 3a 74       	push   $0x743a7264
    e972:	28 31                	sub    %dh,(%ecx)
    e974:	2c 33                	sub    $0x33,%al
    e976:	32 29                	xor    (%ecx),%ch
    e978:	3d 28 31 2c 33       	cmp    $0x332c3128,%eax
    e97d:	33 29                	xor    (%ecx),%ebp
    e97f:	3d 73 36 30 65       	cmp    $0x65303673,%eax
    e984:	5f                   	pop    %edi
    e985:	69 64 65 6e 74 3a 28 	imul   $0x31283a74,0x6e(%ebp,%eiz,2),%esp
    e98c:	31 
    e98d:	2c 32                	sub    $0x32,%al
    e98f:	36 29 2c 30          	sub    %ebp,%ss:(%eax,%esi,1)
    e993:	2c 39                	sub    $0x39,%al
    e995:	36 3b 65 5f          	cmp    %ss:0x5f(%ebp),%esp
    e999:	74 79                	je     ea14 <___crt_xc_end__+0x1a14>
    e99b:	70 65                	jo     ea02 <___crt_xc_end__+0x1a02>
    e99d:	3a 28                	cmp    (%eax),%ch
    e99f:	31 2c 37             	xor    %ebp,(%edi,%esi,1)
    e9a2:	29 2c 39             	sub    %ebp,(%ecx,%edi,1)
    e9a5:	36 2c 31             	ss sub $0x31,%al
    e9a8:	36 3b 65 5f          	cmp    %ss:0x5f(%ebp),%esp
    e9ac:	6d                   	insl   (%dx),%es:(%edi)
    e9ad:	61                   	popa   
    e9ae:	63 68 69             	arpl   %bp,0x69(%eax)
    e9b1:	6e                   	outsb  %ds:(%esi),(%dx)
    e9b2:	65 3a 28             	cmp    %gs:(%eax),%ch
    e9b5:	31 2c 37             	xor    %ebp,(%edi,%esi,1)
    e9b8:	29 2c 31             	sub    %ebp,(%ecx,%esi,1)
    e9bb:	31 32                	xor    %esi,(%edx)
    e9bd:	2c 31                	sub    $0x31,%al
    e9bf:	36 3b 65 5f          	cmp    %ss:0x5f(%ebp),%esp
    e9c3:	76 65                	jbe    ea2a <___crt_xc_end__+0x1a2a>
    e9c5:	72 73                	jb     ea3a <___crt_xc_end__+0x1a3a>
    e9c7:	69 6f 6e 3a 28 31 2c 	imul   $0x2c31283a,0x6e(%edi),%ebp
    e9ce:	31 30                	xor    %esi,(%eax)
    e9d0:	29 2c 31             	sub    %ebp,(%ecx,%esi,1)
    e9d3:	32 38                	xor    (%eax),%bh
    e9d5:	2c 33                	sub    $0x33,%al
    e9d7:	32 3b                	xor    (%ebx),%bh
    e9d9:	65 5f                	gs pop %edi
    e9db:	65 6e                	outsb  %gs:(%esi),(%dx)
    e9dd:	74 72                	je     ea51 <___crt_xc_end__+0x1a51>
    e9df:	79 3a                	jns    ea1b <___crt_xc_end__+0x1a1b>
    e9e1:	28 31                	sub    %dh,(%ecx)
    e9e3:	2c 31                	sub    $0x31,%al
    e9e5:	37                   	aaa    
    e9e6:	29 2c 31             	sub    %ebp,(%ecx,%esi,1)
    e9e9:	36 30 2c 36          	xor    %ch,%ss:(%esi,%esi,1)
    e9ed:	34 3b                	xor    $0x3b,%al
    e9ef:	65 5f                	gs pop %edi
    e9f1:	70 68                	jo     ea5b <___crt_xc_end__+0x1a5b>
    e9f3:	6f                   	outsl  %ds:(%esi),(%dx)
    e9f4:	66 66 3a 28          	data16 data16 cmp (%eax),%ch
    e9f8:	31 2c 31             	xor    %ebp,(%ecx,%esi,1)
    e9fb:	39 29                	cmp    %ebp,(%ecx)
    e9fd:	2c 32                	sub    $0x32,%al
    e9ff:	32 34 2c             	xor    (%esp,%ebp,1),%dh
    ea02:	36 34 3b             	ss xor $0x3b,%al
    ea05:	65 5f                	gs pop %edi
    ea07:	73 68                	jae    ea71 <___crt_xc_end__+0x1a71>
    ea09:	6f                   	outsl  %ds:(%esi),(%dx)
    ea0a:	66 66 3a 28          	data16 data16 cmp (%eax),%ch
    ea0e:	31 2c 31             	xor    %ebp,(%ecx,%esi,1)
    ea11:	39 29                	cmp    %ebp,(%ecx)
    ea13:	2c 32                	sub    $0x32,%al
    ea15:	38 38                	cmp    %bh,(%eax)
    ea17:	2c 36                	sub    $0x36,%al
    ea19:	34 3b                	xor    $0x3b,%al
    ea1b:	65 5f                	gs pop %edi
    ea1d:	66 6c                	data16 insb (%dx),%es:(%edi)
    ea1f:	61                   	popa   
    ea20:	67 73 3a             	addr16 jae ea5d <___crt_xc_end__+0x1a5d>
    ea23:	28 31                	sub    %dh,(%ecx)
    ea25:	2c 31                	sub    $0x31,%al
    ea27:	30 29                	xor    %ch,(%ecx)
    ea29:	2c 33                	sub    $0x33,%al
    ea2b:	35 32 2c 33 32       	xor    $0x32332c32,%eax
    ea30:	3b 65 5f             	cmp    0x5f(%ebp),%esp
    ea33:	65 68 73 69 7a 65    	gs push $0x657a6973
    ea39:	3a 28                	cmp    (%eax),%ch
    ea3b:	31 2c 37             	xor    %ebp,(%edi,%esi,1)
    ea3e:	29 2c 33             	sub    %ebp,(%ebx,%esi,1)
    ea41:	38 34 2c             	cmp    %dh,(%esp,%ebp,1)
    ea44:	31 36                	xor    %esi,(%esi)
    ea46:	3b 65 5f             	cmp    0x5f(%ebp),%esp
    ea49:	70 68                	jo     eab3 <___crt_xc_end__+0x1ab3>
    ea4b:	65 6e                	outsb  %gs:(%esi),(%dx)
    ea4d:	74 73                	je     eac2 <___crt_xc_end__+0x1ac2>
    ea4f:	69 7a 65 3a 28 31 2c 	imul   $0x2c31283a,0x65(%edx),%edi
    ea56:	37                   	aaa    
    ea57:	29 2c 34             	sub    %ebp,(%esp,%esi,1)
    ea5a:	30 30                	xor    %dh,(%eax)
    ea5c:	2c 31                	sub    $0x31,%al
    ea5e:	36 3b 65 5f          	cmp    %ss:0x5f(%ebp),%esp
    ea62:	70 68                	jo     eacc <___crt_xc_end__+0x1acc>
    ea64:	6e                   	outsb  %ds:(%esi),(%dx)
    ea65:	75 6d                	jne    ead4 <___crt_xc_end__+0x1ad4>
    ea67:	3a 28                	cmp    (%eax),%ch
    ea69:	31 2c 37             	xor    %ebp,(%edi,%esi,1)
    ea6c:	29 2c 34             	sub    %ebp,(%esp,%esi,1)
    ea6f:	31 36                	xor    %esi,(%esi)
    ea71:	2c 31                	sub    $0x31,%al
    ea73:	36 3b 65 5f          	cmp    %ss:0x5f(%ebp),%esp
    ea77:	73 68                	jae    eae1 <___crt_xc_end__+0x1ae1>
    ea79:	65 6e                	outsb  %gs:(%esi),(%dx)
    ea7b:	74 73                	je     eaf0 <___crt_xc_end__+0x1af0>
    ea7d:	69 7a 65 3a 28 31 2c 	imul   $0x2c31283a,0x65(%edx),%edi
    ea84:	37                   	aaa    
    ea85:	29 2c 34             	sub    %ebp,(%esp,%esi,1)
    ea88:	33 32                	xor    (%edx),%esi
    ea8a:	2c 31                	sub    $0x31,%al
    ea8c:	36 3b 65 5f          	cmp    %ss:0x5f(%ebp),%esp
    ea90:	73 68                	jae    eafa <___crt_xc_end__+0x1afa>
    ea92:	6e                   	outsb  %ds:(%esi),(%dx)
    ea93:	75 6d                	jne    eb02 <___crt_xc_end__+0x1b02>
    ea95:	3a 28                	cmp    (%eax),%ch
    ea97:	31 2c 37             	xor    %ebp,(%edi,%esi,1)
    ea9a:	29 2c 34             	sub    %ebp,(%esp,%esi,1)
    ea9d:	34 38                	xor    $0x38,%al
    ea9f:	2c 31                	sub    $0x31,%al
    eaa1:	36 3b 65 5f          	cmp    %ss:0x5f(%ebp),%esp
    eaa5:	73 68                	jae    eb0f <___crt_xc_end__+0x1b0f>
    eaa7:	73 74                	jae    eb1d <___crt_xc_end__+0x1b1d>
    eaa9:	72 6e                	jb     eb19 <___crt_xc_end__+0x1b19>
    eaab:	64 78 3a             	fs js  eae8 <___crt_xc_end__+0x1ae8>
    eaae:	28 31                	sub    %dh,(%ecx)
    eab0:	2c 37                	sub    $0x37,%al
    eab2:	29 2c 34             	sub    %ebp,(%esp,%esi,1)
    eab5:	36 34 2c             	ss xor $0x2c,%al
    eab8:	31 36                	xor    %esi,(%esi)
    eaba:	3b 3b                	cmp    (%ebx),%edi
    eabc:	00 45 6c             	add    %al,0x6c(%ebp)
    eabf:	66 33 32             	xor    (%edx),%si
    eac2:	5f                   	pop    %edi
    eac3:	53                   	push   %ebx
    eac4:	79 6d                	jns    eb33 <___crt_xc_end__+0x1b33>
    eac6:	3a 74 28 31          	cmp    0x31(%eax,%ebp,1),%dh
    eaca:	2c 33                	sub    $0x33,%al
    eacc:	34 29                	xor    $0x29,%al
    eace:	3d 28 31 2c 33       	cmp    $0x332c3128,%eax
    ead3:	35 29 3d 73 31       	xor    $0x31733d29,%eax
    ead8:	36 73 74             	ss jae eb4f <___crt_xc_end__+0x1b4f>
    eadb:	5f                   	pop    %edi
    eadc:	6e                   	outsb  %ds:(%esi),(%dx)
    eadd:	61                   	popa   
    eade:	6d                   	insl   (%dx),%es:(%edi)
    eadf:	65 3a 28             	cmp    %gs:(%eax),%ch
    eae2:	31 2c 38             	xor    %ebp,(%eax,%edi,1)
    eae5:	29 2c 30             	sub    %ebp,(%eax,%esi,1)
    eae8:	2c 33                	sub    $0x33,%al
    eaea:	32 3b                	xor    (%ebx),%bh
    eaec:	73 74                	jae    eb62 <___crt_xc_end__+0x1b62>
    eaee:	5f                   	pop    %edi
    eaef:	76 61                	jbe    eb52 <___crt_xc_end__+0x1b52>
    eaf1:	6c                   	insb   (%dx),%es:(%edi)
    eaf2:	75 65                	jne    eb59 <___crt_xc_end__+0x1b59>
    eaf4:	3a 28                	cmp    (%eax),%ch
    eaf6:	31 2c 31             	xor    %ebp,(%ecx,%esi,1)
    eaf9:	36 29 2c 33          	sub    %ebp,%ss:(%ebx,%esi,1)
    eafd:	32 2c 33             	xor    (%ebx,%esi,1),%ch
    eb00:	32 3b                	xor    (%ebx),%bh
    eb02:	73 74                	jae    eb78 <___crt_xc_end__+0x1b78>
    eb04:	5f                   	pop    %edi
    eb05:	73 69                	jae    eb70 <___crt_xc_end__+0x1b70>
    eb07:	7a 65                	jp     eb6e <___crt_xc_end__+0x1b6e>
    eb09:	3a 28                	cmp    (%eax),%ch
    eb0b:	31 2c 38             	xor    %ebp,(%eax,%edi,1)
    eb0e:	29 2c 36             	sub    %ebp,(%esi,%esi,1)
    eb11:	34 2c                	xor    $0x2c,%al
    eb13:	33 32                	xor    (%edx),%esi
    eb15:	3b 73 74             	cmp    0x74(%ebx),%esi
    eb18:	5f                   	pop    %edi
    eb19:	69 6e 66 6f 3a 28 30 	imul   $0x30283a6f,0x66(%esi),%ebp
    eb20:	2c 31                	sub    $0x31,%al
    eb22:	33 29                	xor    (%ecx),%ebp
    eb24:	2c 39                	sub    $0x39,%al
    eb26:	36 2c 38             	ss sub $0x38,%al
    eb29:	3b 73 74             	cmp    0x74(%ebx),%esi
    eb2c:	5f                   	pop    %edi
    eb2d:	6f                   	outsl  %ds:(%esi),(%dx)
    eb2e:	74 68                	je     eb98 <___crt_xc_end__+0x1b98>
    eb30:	65 72 3a             	gs jb  eb6d <___crt_xc_end__+0x1b6d>
    eb33:	28 30                	sub    %dh,(%eax)
    eb35:	2c 31                	sub    $0x31,%al
    eb37:	33 29                	xor    (%ecx),%ebp
    eb39:	2c 31                	sub    $0x31,%al
    eb3b:	30 34 2c             	xor    %dh,(%esp,%ebp,1)
    eb3e:	38 3b                	cmp    %bh,(%ebx)
    eb40:	73 74                	jae    ebb6 <___crt_xc_end__+0x1bb6>
    eb42:	5f                   	pop    %edi
    eb43:	73 68                	jae    ebad <___crt_xc_end__+0x1bad>
    eb45:	6e                   	outsb  %ds:(%esi),(%dx)
    eb46:	64 78 3a             	fs js  eb83 <___crt_xc_end__+0x1b83>
    eb49:	28 31                	sub    %dh,(%ecx)
    eb4b:	2c 36                	sub    $0x36,%al
    eb4d:	29 2c 31             	sub    %ebp,(%ecx,%esi,1)
    eb50:	31 32                	xor    %esi,(%edx)
    eb52:	2c 31                	sub    $0x31,%al
    eb54:	36 3b 3b             	cmp    %ss:(%ebx),%edi
    eb57:	00 45 6c             	add    %al,0x6c(%ebp)
    eb5a:	66 33 32             	xor    (%edx),%si
    eb5d:	5f                   	pop    %edi
    eb5e:	52                   	push   %edx
    eb5f:	65 6c                	gs insb (%dx),%es:(%edi)
    eb61:	3a 74 28 31          	cmp    0x31(%eax,%ebp,1),%dh
    eb65:	2c 33                	sub    $0x33,%al
    eb67:	36 29 3d 28 31 2c 33 	sub    %edi,%ss:0x332c3128
    eb6e:	37                   	aaa    
    eb6f:	29 3d 73 38 72 5f    	sub    %edi,0x5f723873
    eb75:	6f                   	outsl  %ds:(%esi),(%dx)
    eb76:	66 66 73 65          	data16 data16 jae ebdf <___crt_xc_end__+0x1bdf>
    eb7a:	74 3a                	je     ebb6 <___crt_xc_end__+0x1bb6>
    eb7c:	28 31                	sub    %dh,(%ecx)
    eb7e:	2c 38                	sub    $0x38,%al
    eb80:	29 2c 30             	sub    %ebp,(%eax,%esi,1)
    eb83:	2c 33                	sub    $0x33,%al
    eb85:	32 3b                	xor    (%ebx),%bh
    eb87:	72 5f                	jb     ebe8 <___crt_xc_end__+0x1be8>
    eb89:	69 6e 66 6f 3a 28 31 	imul   $0x31283a6f,0x66(%esi),%ebp
    eb90:	2c 31                	sub    $0x31,%al
    eb92:	36 29 2c 33          	sub    %ebp,%ss:(%ebx,%esi,1)
    eb96:	32 2c 33             	xor    (%ebx,%esi,1),%ch
    eb99:	32 3b                	xor    (%ebx),%bh
    eb9b:	3b 00                	cmp    (%eax),%eax
    eb9d:	43                   	inc    %ebx
    eb9e:	3a 2f                	cmp    (%edi),%ch
    eba0:	55                   	push   %ebp
    eba1:	73 65                	jae    ec08 <___crt_xc_end__+0x1c08>
    eba3:	72 73                	jb     ec18 <___crt_xc_end__+0x1c18>
    eba5:	2f                   	das    
    eba6:	b4 fa                	mov    $0xfa,%ah
    eba8:	b7 b2                	mov    $0xb2,%bh
    ebaa:	2f                   	das    
    ebab:	44                   	inc    %esp
    ebac:	6f                   	outsl  %ds:(%esi),(%dx)
    ebad:	63 75 6d             	arpl   %si,0x6d(%ebp)
    ebb0:	65 6e                	outsb  %gs:(%esi),(%dx)
    ebb2:	74 73                	je     ec27 <___crt_xc_end__+0x1c27>
    ebb4:	2f                   	das    
    ebb5:	b4 fa                	mov    $0xfa,%ah
    ebb7:	c2 eb 2f             	ret    $0x2feb
    ebba:	73 79                	jae    ec35 <___crt_xc_end__+0x1c35>
    ebbc:	73 74                	jae    ec32 <___crt_xc_end__+0x1c32>
    ebbe:	65 6d                	gs insl (%dx),%es:(%edi)
    ebc0:	2f                   	das    
    ebc1:	6c                   	insb   (%dx),%es:(%edi)
    ebc2:	69 6e 64 6f 72 78 2f 	imul   $0x2f78726f,0x64(%esi),%ebp
    ebc9:	69 6e 63 6c 75 64 65 	imul   $0x6564756c,0x63(%esi),%ebp
    ebd0:	2f                   	das    
    ebd1:	5f                   	pop    %edi
    ebd2:	61                   	popa   
    ebd3:	73 6d                	jae    ec42 <___crt_xc_end__+0x1c42>
    ebd5:	2e 68 00 43 3a 2f    	cs push $0x2f3a4300
    ebdb:	55                   	push   %ebp
    ebdc:	73 65                	jae    ec43 <___crt_xc_end__+0x1c43>
    ebde:	72 73                	jb     ec53 <___crt_xc_end__+0x1c53>
    ebe0:	2f                   	das    
    ebe1:	b4 fa                	mov    $0xfa,%ah
    ebe3:	b7 b2                	mov    $0xb2,%bh
    ebe5:	2f                   	das    
    ebe6:	44                   	inc    %esp
    ebe7:	6f                   	outsl  %ds:(%esi),(%dx)
    ebe8:	63 75 6d             	arpl   %si,0x6d(%ebp)
    ebeb:	65 6e                	outsb  %gs:(%esi),(%dx)
    ebed:	74 73                	je     ec62 <___crt_xc_end__+0x1c62>
    ebef:	2f                   	das    
    ebf0:	b4 fa                	mov    $0xfa,%ah
    ebf2:	c2 eb 2f             	ret    $0x2feb
    ebf5:	73 79                	jae    ec70 <___crt_xc_end__+0x1c70>
    ebf7:	73 74                	jae    ec6d <___crt_xc_end__+0x1c6d>
    ebf9:	65 6d                	gs insl (%dx),%es:(%edi)
    ebfb:	2f                   	das    
    ebfc:	6c                   	insb   (%dx),%es:(%edi)
    ebfd:	69 6e 64 6f 72 78 2f 	imul   $0x2f78726f,0x64(%esi),%ebp
    ec04:	69 6e 63 6c 75 64 65 	imul   $0x6564756c,0x63(%esi),%ebp
    ec0b:	2f                   	das    
    ec0c:	6d                   	insl   (%dx),%es:(%edi)
    ec0d:	61                   	popa   
    ec0e:	63 72 6f             	arpl   %si,0x6f(%edx)
    ec11:	2e 68 00 43 3a 2f    	cs push $0x2f3a4300
    ec17:	55                   	push   %ebp
    ec18:	73 65                	jae    ec7f <___crt_xc_end__+0x1c7f>
    ec1a:	72 73                	jb     ec8f <___crt_xc_end__+0x1c8f>
    ec1c:	2f                   	das    
    ec1d:	b4 fa                	mov    $0xfa,%ah
    ec1f:	b7 b2                	mov    $0xb2,%bh
    ec21:	2f                   	das    
    ec22:	44                   	inc    %esp
    ec23:	6f                   	outsl  %ds:(%esi),(%dx)
    ec24:	63 75 6d             	arpl   %si,0x6d(%ebp)
    ec27:	65 6e                	outsb  %gs:(%esi),(%dx)
    ec29:	74 73                	je     ec9e <___crt_xc_end__+0x1c9e>
    ec2b:	2f                   	das    
    ec2c:	b4 fa                	mov    $0xfa,%ah
    ec2e:	c2 eb 2f             	ret    $0x2feb
    ec31:	73 79                	jae    ecac <___crt_xc_end__+0x1cac>
    ec33:	73 74                	jae    eca9 <___crt_xc_end__+0x1ca9>
    ec35:	65 6d                	gs insl (%dx),%es:(%edi)
    ec37:	2f                   	das    
    ec38:	6c                   	insb   (%dx),%es:(%edi)
    ec39:	69 6e 64 6f 72 78 2f 	imul   $0x2f78726f,0x64(%esi),%ebp
    ec40:	69 6e 63 6c 75 64 65 	imul   $0x6564756c,0x63(%esi),%ebp
    ec47:	2f                   	das    
    ec48:	74 79                	je     ecc3 <___crt_xc_end__+0x1cc3>
    ec4a:	70 65                	jo     ecb1 <___crt_xc_end__+0x1cb1>
    ec4c:	2e 68 00 75 63 68    	cs push $0x68637500
    ec52:	61                   	popa   
    ec53:	72 3a                	jb     ec8f <___crt_xc_end__+0x1c8f>
    ec55:	74 28                	je     ec7f <___crt_xc_end__+0x1c7f>
    ec57:	34 2c                	xor    $0x2c,%al
    ec59:	31 29                	xor    %ebp,(%ecx)
    ec5b:	3d 28 30 2c 31       	cmp    $0x312c3028,%eax
    ec60:	33 29                	xor    (%ecx),%ebp
    ec62:	00 62 79             	add    %ah,0x79(%edx)
    ec65:	74 65                	je     eccc <___crt_xc_end__+0x1ccc>
    ec67:	3a 74 28 34          	cmp    0x34(%eax,%ebp,1),%dh
    ec6b:	2c 32                	sub    $0x32,%al
    ec6d:	29 3d 28 30 2c 31    	sub    %edi,0x312c3028
    ec73:	33 29                	xor    (%ecx),%ebp
    ec75:	00 75 69             	add    %dh,0x69(%ebp)
    ec78:	6e                   	outsb  %ds:(%esi),(%dx)
    ec79:	74 38                	je     ecb3 <___crt_xc_end__+0x1cb3>
    ec7b:	3a 74 28 34          	cmp    0x34(%eax,%ebp,1),%dh
    ec7f:	2c 33                	sub    $0x33,%al
    ec81:	29 3d 28 30 2c 31    	sub    %edi,0x312c3028
    ec87:	33 29                	xor    (%ecx),%ebp
    ec89:	00 75 69             	add    %dh,0x69(%ebp)
    ec8c:	6e                   	outsb  %ds:(%esi),(%dx)
    ec8d:	74 31                	je     ecc0 <___crt_xc_end__+0x1cc0>
    ec8f:	36 3a 74 28 34       	cmp    %ss:0x34(%eax,%ebp,1),%dh
    ec94:	2c 34                	sub    $0x34,%al
    ec96:	29 3d 28 30 2c 31    	sub    %edi,0x312c3028
    ec9c:	31 29                	xor    %ebp,(%ecx)
    ec9e:	00 75 69             	add    %dh,0x69(%ebp)
    eca1:	6e                   	outsb  %ds:(%esi),(%dx)
    eca2:	74 33                	je     ecd7 <___crt_xc_end__+0x1cd7>
    eca4:	32 3a                	xor    (%edx),%bh
    eca6:	74 28                	je     ecd0 <___crt_xc_end__+0x1cd0>
    eca8:	34 2c                	xor    $0x2c,%al
    ecaa:	35 29 3d 28 30       	xor    $0x30283d29,%eax
    ecaf:	2c 34                	sub    $0x34,%al
    ecb1:	29 00                	sub    %eax,(%eax)
    ecb3:	75 69                	jne    ed1e <___crt_xc_end__+0x1d1e>
    ecb5:	6e                   	outsb  %ds:(%esi),(%dx)
    ecb6:	74 36                	je     ecee <___crt_xc_end__+0x1cee>
    ecb8:	34 3a                	xor    $0x3a,%al
    ecba:	74 28                	je     ece4 <___crt_xc_end__+0x1ce4>
    ecbc:	34 2c                	xor    $0x2c,%al
    ecbe:	36 29 3d 28 30 2c 35 	sub    %edi,%ss:0x352c3028
    ecc5:	29 00                	sub    %eax,(%eax)
    ecc7:	75 69                	jne    ed32 <___crt_xc_end__+0x1d32>
    ecc9:	6e                   	outsb  %ds:(%esi),(%dx)
    ecca:	74 3a                	je     ed06 <___crt_xc_end__+0x1d06>
    eccc:	74 28                	je     ecf6 <___crt_xc_end__+0x1cf6>
    ecce:	34 2c                	xor    $0x2c,%al
    ecd0:	37                   	aaa    
    ecd1:	29 3d 28 30 2c 34    	sub    %edi,0x342c3028
    ecd7:	29 00                	sub    %eax,(%eax)
    ecd9:	75 73                	jne    ed4e <___crt_xc_end__+0x1d4e>
    ecdb:	68 6f 72 74 3a       	push   $0x3a74726f
    ece0:	74 28                	je     ed0a <___crt_xc_end__+0x1d0a>
    ece2:	34 2c                	xor    $0x2c,%al
    ece4:	38 29                	cmp    %ch,(%ecx)
    ece6:	3d 28 30 2c 31       	cmp    $0x312c3028,%eax
    eceb:	31 29                	xor    %ebp,(%ecx)
    eced:	00 45 52             	add    %al,0x52(%ebp)
    ecf0:	52                   	push   %edx
    ecf1:	4f                   	dec    %edi
    ecf2:	52                   	push   %edx
    ecf3:	3a 74 28 34          	cmp    0x34(%eax,%ebp,1),%dh
    ecf7:	2c 39                	sub    $0x39,%al
    ecf9:	29 3d 28 30 2c 31    	sub    %edi,0x312c3028
    ecff:	29 00                	sub    %eax,(%eax)
    ed01:	73 69                	jae    ed6c <___crt_xc_end__+0x1d6c>
    ed03:	7a 65                	jp     ed6a <___crt_xc_end__+0x1d6a>
    ed05:	5f                   	pop    %edi
    ed06:	74 3a                	je     ed42 <___crt_xc_end__+0x1d42>
    ed08:	74 28                	je     ed32 <___crt_xc_end__+0x1d32>
    ed0a:	34 2c                	xor    $0x2c,%al
    ed0c:	31 30                	xor    %esi,(%eax)
    ed0e:	29 3d 28 30 2c 34    	sub    %edi,0x342c3028
    ed14:	29 00                	sub    %eax,(%eax)
    ed16:	44                   	inc    %esp
    ed17:	57                   	push   %edi
    ed18:	4f                   	dec    %edi
    ed19:	52                   	push   %edx
    ed1a:	44                   	inc    %esp
    ed1b:	3a 74 28 34          	cmp    0x34(%eax,%ebp,1),%dh
    ed1f:	2c 31                	sub    $0x31,%al
    ed21:	31 29                	xor    %ebp,(%ecx)
    ed23:	3d 28 30 2c 34       	cmp    $0x342c3028,%eax
    ed28:	29 00                	sub    %eax,(%eax)
    ed2a:	5f                   	pop    %edi
    ed2b:	5f                   	pop    %edi
    ed2c:	70 69                	jo     ed97 <___crt_xc_end__+0x1d97>
    ed2e:	64 5f                	fs pop %edi
    ed30:	74 3a                	je     ed6c <___crt_xc_end__+0x1d6c>
    ed32:	74 28                	je     ed5c <___crt_xc_end__+0x1d5c>
    ed34:	34 2c                	xor    $0x2c,%al
    ed36:	31 32                	xor    %esi,(%edx)
    ed38:	29 3d 28 30 2c 31    	sub    %edi,0x312c3028
    ed3e:	29 00                	sub    %eax,(%eax)
    ed40:	70 69                	jo     edab <___crt_xc_end__+0x1dab>
    ed42:	64 5f                	fs pop %edi
    ed44:	74 3a                	je     ed80 <___crt_xc_end__+0x1d80>
    ed46:	74 28                	je     ed70 <___crt_xc_end__+0x1d70>
    ed48:	34 2c                	xor    $0x2c,%al
    ed4a:	31 33                	xor    %esi,(%ebx)
    ed4c:	29 3d 28 34 2c 31    	sub    %edi,0x312c3428
    ed52:	32 29                	xor    (%ecx),%ch
    ed54:	00 70 74             	add    %dh,0x74(%eax)
    ed57:	72 5f                	jb     edb8 <___crt_xc_end__+0x1db8>
    ed59:	74 3a                	je     ed95 <___crt_xc_end__+0x1d95>
    ed5b:	74 28                	je     ed85 <___crt_xc_end__+0x1d85>
    ed5d:	33 2c 31             	xor    (%ecx,%esi,1),%ebp
    ed60:	29 3d 28 30 2c 31    	sub    %edi,0x312c3028
    ed66:	29 00                	sub    %eax,(%eax)
    ed68:	6c                   	insb   (%dx),%es:(%edi)
    ed69:	6f                   	outsl  %ds:(%esi),(%dx)
    ed6a:	61                   	popa   
    ed6b:	64 5f                	fs pop %edi
    ed6d:	73 74                	jae    ede3 <___crt_xc_end__+0x1de3>
    ed6f:	72 75                	jb     ede6 <___crt_xc_end__+0x1de6>
    ed71:	63 74 3a 54          	arpl   %si,0x54(%edx,%edi,1)
    ed75:	28 32                	sub    %dh,(%edx)
    ed77:	2c 31                	sub    $0x31,%al
    ed79:	29 3d 73 36 73 69    	sub    %edi,0x69733673
    ed7f:	7a 65                	jp     ede6 <___crt_xc_end__+0x1de6>
    ed81:	3a 28                	cmp    (%eax),%ch
    ed83:	30 2c 31             	xor    %ch,(%ecx,%esi,1)
    ed86:	31 29                	xor    %ebp,(%ecx)
    ed88:	2c 30                	sub    $0x30,%al
    ed8a:	2c 31                	sub    $0x31,%al
    ed8c:	36 3b 61 64          	cmp    %ss:0x64(%ecx),%esp
    ed90:	64 72 3a             	fs jb  edcd <___crt_xc_end__+0x1dcd>
    ed93:	28 32                	sub    %dh,(%edx)
    ed95:	2c 32                	sub    $0x32,%al
    ed97:	29 3d 2a 28 30 2c    	sub    %edi,0x2c30282a
    ed9d:	32 35 29 2c 31 36    	xor    0x36312c29,%dh
    eda3:	2c 33                	sub    $0x33,%al
    eda5:	32 3b                	xor    (%ebx),%bh
    eda7:	3b 00                	cmp    (%eax),%eax
    eda9:	77 61                	ja     ee0c <___crt_xc_end__+0x1e0c>
    edab:	69 74 64 69 73 6b 3a 	imul   $0x463a6b73,0x69(%esp,%eiz,2),%esi
    edb2:	46 
    edb3:	28 30                	sub    %dh,(%eax)
    edb5:	2c 32                	sub    $0x32,%al
    edb7:	35 29 00 72 65       	xor    $0x65720029,%eax
    edbc:	61                   	popa   
    edbd:	64 73 65             	fs jae ee25 <___crt_xc_end__+0x1e25>
    edc0:	63 74 3a 46          	arpl   %si,0x46(%edx,%edi,1)
    edc4:	28 30                	sub    %dh,(%eax)
    edc6:	2c 32                	sub    $0x32,%al
    edc8:	35 29 00 64 73       	xor    $0x73640029,%eax
    edcd:	74 3a                	je     ee09 <___crt_xc_end__+0x1e09>
    edcf:	70 28                	jo     edf9 <___crt_xc_end__+0x1df9>
    edd1:	32 2c 32             	xor    (%edx,%esi,1),%ch
    edd4:	29 00                	sub    %eax,(%eax)
    edd6:	6f                   	outsl  %ds:(%esi),(%dx)
    edd7:	66 66 73 65          	data16 data16 jae ee40 <___crt_xc_end__+0x1e40>
    eddb:	74 3a                	je     ee17 <___crt_xc_end__+0x1e17>
    eddd:	70 28                	jo     ee07 <___crt_xc_end__+0x1e07>
    eddf:	34 2c                	xor    $0x2c,%al
    ede1:	37                   	aaa    
    ede2:	29 00                	sub    %eax,(%eax)
    ede4:	6f                   	outsl  %ds:(%esi),(%dx)
    ede5:	66 66 73 65          	data16 data16 jae ee4e <___crt_xc_end__+0x1e4e>
    ede9:	74 3a                	je     ee25 <___crt_xc_end__+0x1e25>
    edeb:	72 28                	jb     ee15 <___crt_xc_end__+0x1e15>
    eded:	34 2c                	xor    $0x2c,%al
    edef:	37                   	aaa    
    edf0:	29 00                	sub    %eax,(%eax)
    edf2:	72 65                	jb     ee59 <___crt_xc_end__+0x1e59>
    edf4:	61                   	popa   
    edf5:	64 73 65             	fs jae ee5d <___crt_xc_end__+0x1e5d>
    edf8:	67 3a 46 28          	cmp    0x28(%bp),%al
    edfc:	30 2c 32             	xor    %ch,(%edx,%esi,1)
    edff:	35 29 00 70 61       	xor    $0x61700029,%eax
    ee04:	3a 70 28             	cmp    0x28(%eax),%dh
    ee07:	30 2c 32             	xor    %ch,(%edx,%esi,1)
    ee0a:	36 29 3d 2a 28 30 2c 	sub    %edi,%ss:0x2c30282a
    ee11:	31 33                	xor    %esi,(%ebx)
    ee13:	29 00                	sub    %eax,(%eax)
    ee15:	63 6f 75             	arpl   %bp,0x75(%edi)
    ee18:	6e                   	outsb  %ds:(%esi),(%dx)
    ee19:	74 3a                	je     ee55 <___crt_xc_end__+0x1e55>
    ee1b:	70 28                	jo     ee45 <___crt_xc_end__+0x1e45>
    ee1d:	34 2c                	xor    $0x2c,%al
    ee1f:	37                   	aaa    
    ee20:	29 00                	sub    %eax,(%eax)
    ee22:	65 70 61             	gs jo  ee86 <___crt_xc_end__+0x1e86>
    ee25:	3a 72 28             	cmp    0x28(%edx),%dh
    ee28:	30 2c 32             	xor    %ch,(%edx,%esi,1)
    ee2b:	36 29 00             	sub    %eax,%ss:(%eax)
    ee2e:	70 61                	jo     ee91 <___crt_xc_end__+0x1e91>
    ee30:	3a 72 28             	cmp    0x28(%edx),%dh
    ee33:	30 2c 32             	xor    %ch,(%edx,%esi,1)
    ee36:	36 29 00             	sub    %eax,%ss:(%eax)
    ee39:	6c                   	insb   (%dx),%es:(%edi)
    ee3a:	6f                   	outsl  %ds:(%esi),(%dx)
    ee3b:	61                   	popa   
    ee3c:	64 5f                	fs pop %edi
    ee3e:	6b 65 72 6e          	imul   $0x6e,0x72(%ebp),%esp
    ee42:	65 6c                	gs insb (%dx),%es:(%edi)
    ee44:	3a 46 28             	cmp    0x28(%esi),%al
    ee47:	30 2c 32             	xor    %ch,(%edx,%esi,1)
    ee4a:	37                   	aaa    
    ee4b:	29 3d 2a 28 30 2c    	sub    %edi,0x2c30282a
    ee51:	32 29                	xor    (%ecx),%ch
    ee53:	00 70 68             	add    %dh,0x68(%eax)
    ee56:	3a 72 28             	cmp    0x28(%edx),%dh
    ee59:	30 2c 32             	xor    %ch,(%edx,%esi,1)
    ee5c:	38 29                	cmp    %ch,(%ecx)
    ee5e:	3d 2a 28 31 2c       	cmp    $0x2c31282a,%eax
    ee63:	32 38                	xor    (%eax),%bh
    ee65:	29 00                	sub    %eax,(%eax)
    ee67:	65 70 68             	gs jo  eed2 <___crt_xc_end__+0x1ed2>
    ee6a:	3a 72 28             	cmp    0x28(%edx),%dh
    ee6d:	30 2c 32             	xor    %ch,(%edx,%esi,1)
    ee70:	38 29                	cmp    %ch,(%ecx)
	...
